

Microchip MPLAB XC8 Assembler V2.10 build 88905656 
                                                                                               Thu May 14 19:34:08 2020

Microchip MPLAB XC8 C Compiler v2.10 (Free license) build 20190730164152 Og1 
     1                           	processor	16F877A
     2                           	opt	pw 120
     3                           	opt	flic
     4                           	psect	idataBANK0,global,class=CODE,delta=2
     5                           	psect	cinit,global,class=CODE,merge=1,delta=2
     6                           	psect	bssBANK0,global,class=BANK0,space=1,delta=1
     7                           	psect	dataBANK0,global,class=BANK0,space=1,delta=1
     8                           	psect	clrtext,global,class=CODE,delta=2
     9                           	psect	cstackCOMMON,global,class=COMMON,space=1,delta=1
    10                           	psect	cstackBANK0,global,class=BANK0,space=1,delta=1
    11                           	psect	maintext,global,class=CODE,split=1,delta=2
    12                           	psect	text1,local,class=CODE,merge=1,delta=2
    13                           	psect	text2,local,class=CODE,merge=1,delta=2
    14                           	psect	text3,local,class=CODE,merge=1,delta=2
    15                           	psect	text4,local,class=CODE,merge=1,delta=2,group=1
    16                           	psect	text5,local,class=CODE,merge=1,delta=2,group=1
    17                           	psect	text6,local,class=CODE,merge=1,delta=2
    18                           	psect	text7,local,class=CODE,merge=1,delta=2
    19                           	psect	text8,local,class=CODE,merge=1,delta=2
    20                           	psect	text9,local,class=CODE,merge=1,delta=2
    21                           	psect	text10,local,class=CODE,merge=1,delta=2
    22                           	psect	text11,local,class=CODE,merge=1,delta=2
    23                           	psect	text12,local,class=CODE,merge=1,delta=2
    24                           	psect	text13,local,class=CODE,merge=1,delta=2
    25                           	psect	text14,local,class=CODE,merge=1,delta=2
    26                           	psect	text15,local,class=CODE,merge=1,delta=2
    27                           	psect	text16,local,class=CODE,merge=1,delta=2
    28                           	psect	text17,local,class=CODE,merge=1,delta=2
    29                           	psect	text18,local,class=CODE,merge=1,delta=2
    30                           	psect	text19,local,class=CODE,merge=1,delta=2
    31                           	psect	text20,local,class=CODE,merge=1,delta=2,group=1
    32                           	dabs	1,0x7E,2
    33  0000                     
    34                           ; Version 2.10
    35                           ; Generated 31/07/2019 GMT
    36                           ; 
    37                           ; Copyright © 2019, Microchip Technology Inc. and its subsidiaries ("Microchip")
    38                           ; All rights reserved.
    39                           ; 
    40                           ; This software is developed by Microchip Technology Inc. and its subsidiaries ("Microch
      +                          ip").
    41                           ; 
    42                           ; Redistribution and use in source and binary forms, with or without modification, are
    43                           ; permitted provided that the following conditions are met:
    44                           ; 
    45                           ;     1. Redistributions of source code must retain the above copyright notice, this lis
      +                          t of
    46                           ;        conditions and the following disclaimer.
    47                           ; 
    48                           ;     2. Redistributions in binary form must reproduce the above copyright notice, this 
      +                          list
    49                           ;        of conditions and the following disclaimer in the documentation and/or other
    50                           ;        materials provided with the distribution.
    51                           ; 
    52                           ;     3. Microchip's name may not be used to endorse or promote products derived from th
      +                          is
    53                           ;        software without specific prior written permission.
    54                           ; 
    55                           ; THIS SOFTWARE IS PROVIDED BY MICROCHIP "AS IS" AND ANY EXPRESS OR IMPLIED WARRANTIES,
    56                           ; INCLUDING, BUT NOT LIMITED TO, THE IMPLIED WARRANTIES OF MERCHANTABILITY AND FITNESS F
      +                          OR
    57                           ; PURPOSE ARE DISCLAIMED.  IN NO EVENT SHALL MICROCHIP BE LIABLE FOR ANY DIRECT, INDIREC
      +                          T,
    58                           ; INCIDENTAL, SPECIAL, EXEMPLARY, OR CONSEQUENTIAL DAMAGES (INCLUDING BUT NOT LIMITED TO
    59                           ; PROCUREMENT OF SUBSTITUTE GOODS OR SERVICES; LOSS OF USE, DATA OR PROFITS; OR BUSINESS
    60                           ; INTERRUPTION) HOWSOEVER CAUSED AND ON ANY THEORY OF LIABILITY, WHETHER IN CONTRACT, ST
      +                          RICT
    61                           ; LIABILITY, OR TORT (INCLUDING NEGLIGENCE OR OTHERWISE) ARISING IN ANY WAY OUT OF THE U
      +                          SE OF
    62                           ; THIS SOFTWARE, EVEN IF ADVISED OF THE POSSIBILITY OF SUCH DAMAGE.
    63                           ; 
    64                           ; 
    65                           ; Code-generator required, PIC16F877A Definitions
    66                           ; 
    67                           ; SFR Addresses
    68  0000                     	;# 
    69  0001                     	;# 
    70  0002                     	;# 
    71  0003                     	;# 
    72  0004                     	;# 
    73  0005                     	;# 
    74  0006                     	;# 
    75  0007                     	;# 
    76  0008                     	;# 
    77  0009                     	;# 
    78  000A                     	;# 
    79  000B                     	;# 
    80  000C                     	;# 
    81  000D                     	;# 
    82  000E                     	;# 
    83  000E                     	;# 
    84  000F                     	;# 
    85  0010                     	;# 
    86  0011                     	;# 
    87  0012                     	;# 
    88  0013                     	;# 
    89  0014                     	;# 
    90  0015                     	;# 
    91  0015                     	;# 
    92  0016                     	;# 
    93  0017                     	;# 
    94  0018                     	;# 
    95  0019                     	;# 
    96  001A                     	;# 
    97  001B                     	;# 
    98  001B                     	;# 
    99  001C                     	;# 
   100  001D                     	;# 
   101  001E                     	;# 
   102  001F                     	;# 
   103  0081                     	;# 
   104  0085                     	;# 
   105  0086                     	;# 
   106  0087                     	;# 
   107  0088                     	;# 
   108  0089                     	;# 
   109  008C                     	;# 
   110  008D                     	;# 
   111  008E                     	;# 
   112  0091                     	;# 
   113  0092                     	;# 
   114  0093                     	;# 
   115  0094                     	;# 
   116  0098                     	;# 
   117  0099                     	;# 
   118  009C                     	;# 
   119  009D                     	;# 
   120  009E                     	;# 
   121  009F                     	;# 
   122  010C                     	;# 
   123  010D                     	;# 
   124  010E                     	;# 
   125  010F                     	;# 
   126  018C                     	;# 
   127  018D                     	;# 
   128  0000                     	;# 
   129  0001                     	;# 
   130  0002                     	;# 
   131  0003                     	;# 
   132  0004                     	;# 
   133  0005                     	;# 
   134  0006                     	;# 
   135  0007                     	;# 
   136  0008                     	;# 
   137  0009                     	;# 
   138  000A                     	;# 
   139  000B                     	;# 
   140  000C                     	;# 
   141  000D                     	;# 
   142  000E                     	;# 
   143  000E                     	;# 
   144  000F                     	;# 
   145  0010                     	;# 
   146  0011                     	;# 
   147  0012                     	;# 
   148  0013                     	;# 
   149  0014                     	;# 
   150  0015                     	;# 
   151  0015                     	;# 
   152  0016                     	;# 
   153  0017                     	;# 
   154  0018                     	;# 
   155  0019                     	;# 
   156  001A                     	;# 
   157  001B                     	;# 
   158  001B                     	;# 
   159  001C                     	;# 
   160  001D                     	;# 
   161  001E                     	;# 
   162  001F                     	;# 
   163  0081                     	;# 
   164  0085                     	;# 
   165  0086                     	;# 
   166  0087                     	;# 
   167  0088                     	;# 
   168  0089                     	;# 
   169  008C                     	;# 
   170  008D                     	;# 
   171  008E                     	;# 
   172  0091                     	;# 
   173  0092                     	;# 
   174  0093                     	;# 
   175  0094                     	;# 
   176  0098                     	;# 
   177  0099                     	;# 
   178  009C                     	;# 
   179  009D                     	;# 
   180  009E                     	;# 
   181  009F                     	;# 
   182  010C                     	;# 
   183  010D                     	;# 
   184  010E                     	;# 
   185  010F                     	;# 
   186  018C                     	;# 
   187  018D                     	;# 
   188                           
   189                           	psect	idataBANK0
   190  0003                     __pidataBANK0:	
   191                           
   192                           ;initializer for _alarm
   193  0003  3400               	retlw	0
   194  0004  3400               	retlw	0
   195  0005  347F               	retlw	127
   196  000E                     _TMR1	set	14
   197  0010                     _T1CON	set	16
   198  0009                     _PORTE	set	9
   199  0008                     _PORTD	set	8
   200  0007                     _PORTC	set	7
   201  0006                     _PORTB	set	6
   202  0005                     _PORTA	set	5
   203  000B                     _INTCONbits	set	11
   204  000D                     _PIR2bits	set	13
   205  0080                     _TMR1ON	set	128
   206  0038                     _RC0	set	56
   207  003B                     _RC3	set	59
   208  003A                     _RC2	set	58
   209  0039                     _RC1	set	57
   210  003C                     _RC4	set	60
   211  003D                     _RC5	set	61
   212  005F                     _GIE	set	95
   213  006C                     _EEIF	set	108
   214  0087                     _TRISC	set	135
   215  0086                     _TRISB	set	134
   216  0089                     _TRISE	set	137
   217  0088                     _TRISD	set	136
   218  0085                     _TRISA	set	133
   219  010C                     _EEDATA	set	268
   220  010D                     _EEADR	set	269
   221  018D                     _EECON2	set	397
   222  018C                     _EECON1bits	set	396
   223                           
   224                           ; #config settings
   225  0000                     
   226                           	psect	cinit
   227  07E1                     start_initialization:	
   228  07E1                     __initialization:	
   229                           
   230                           ; Initialize objects allocated to BANK0
   231  07E1  120A  118A  2003  120A  118A  	fcall	__pidataBANK0	;fetch initializer
   232  07E6  00E2               	movwf	__pdataBANK0& (0+127)
   233  07E7  120A  118A  2004  120A  118A  	fcall	__pidataBANK0+1	;fetch initializer
   234  07EC  00E3               	movwf	(__pdataBANK0+1)& (0+127)
   235  07ED  120A  118A  2005  120A  118A  	fcall	__pidataBANK0+2	;fetch initializer
   236  07F2  00E4               	movwf	(__pdataBANK0+2)& (0+127)
   237                           
   238                           ; Clear objects allocated to BANK0
   239  07F3  1383               	bcf	3,7	;select IRP bank0
   240  07F4  3047               	movlw	low __pbssBANK0
   241  07F5  0084               	movwf	4
   242  07F6  3062               	movlw	low (__pbssBANK0+27)
   243  07F7  120A  158A  230E  120A  118A  	fcall	clear_ram0
   244  07FC                     end_of_initialization:	
   245                           ;End of C runtime variable initialization code
   246                           
   247  07FC                     __end_of__initialization:	
   248  07FC  0183               	clrf	3
   249  07FD  120A  118A  2AFA   	ljmp	_main	;jump to C main() function
   250                           
   251                           	psect	bssBANK0
   252  0047                     __pbssBANK0:	
   253  0047                     _snz:	
   254  0047                     	ds	8
   255  004F                     _alarms:	
   256  004F                     	ds	8
   257  0057                     _sec_count:	
   258  0057                     	ds	1
   259  0058                     _snz_state:	
   260  0058                     	ds	1
   261  0059                     _al_state:	
   262  0059                     	ds	1
   263  005A                     _sec:	
   264  005A                     	ds	1
   265  005B                     _min:	
   266  005B                     	ds	1
   267  005C                     _hr:	
   268  005C                     	ds	1
   269  005D                     _alarm_no:	
   270  005D                     	ds	1
   271  005E                     _alarm_m:	
   272  005E                     	ds	1
   273  005F                     _alarm_h:	
   274  005F                     	ds	1
   275  0060                     _time:	
   276  0060                     	ds	2
   277                           
   278                           	psect	dataBANK0
   279  0062                     __pdataBANK0:	
   280  0062                     _alarm:	
   281  0062                     	ds	3
   282                           
   283                           	psect	clrtext
   284  0B0E                     clear_ram0:	
   285                           ;	Called with FSR containing the base address, and
   286                           ;	W with the last address+1
   287                           
   288  0B0E  0064               	clrwdt	;clear the watchdog before getting into this loop
   289  0B0F                     clrloop0:	
   290  0B0F  0180               	clrf	0	;clear RAM location pointed to by FSR
   291  0B10  0A84               	incf	4,f	;increment pointer
   292  0B11  0604               	xorwf	4,w	;XOR with final address
   293  0B12  1903               	btfsc	3,2	;have we reached the end yet?
   294  0B13  3400               	retlw	0	;all done for this memory range, return
   295  0B14  0604               	xorwf	4,w	;XOR again to restore value
   296  0B15  2B0F               	goto	clrloop0	;do the next byte
   297                           
   298                           	psect	cstackCOMMON
   299  0070                     __pcstackCOMMON:	
   300  0070                     ?_disp_cc:	
   301  0070                     ??_disp_cc:	
   302                           ; 1 bytes @ 0x0
   303                           
   304  0070                     ?_delay:	
   305                           ; 1 bytes @ 0x0
   306                           
   307  0070                     ??_delay:	
   308                           ; 1 bytes @ 0x0
   309                           
   310  0070                     ?_data_init:	
   311                           ; 1 bytes @ 0x0
   312                           
   313  0070                     ??_data_init:	
   314                           ; 1 bytes @ 0x0
   315                           
   316  0070                     ?_data_read:	
   317                           ; 1 bytes @ 0x0
   318                           
   319  0070                     ?_real_time_counter:	
   320                           ; 1 bytes @ 0x0
   321                           
   322  0070                     ??_real_time_counter:	
   323                           ; 1 bytes @ 0x0
   324                           
   325  0070                     ?_alarm_init:	
   326                           ; 1 bytes @ 0x0
   327                           
   328  0070                     ?_disp_alarm_no:	
   329                           ; 1 bytes @ 0x0
   330                           
   331  0070                     ?_disp_alarm_state:	
   332                           ; 1 bytes @ 0x0
   333                           
   334  0070                     ?_disp_alarm:	
   335                           ; 1 bytes @ 0x0
   336                           
   337  0070                     ?_main:	
   338                           ; 1 bytes @ 0x0
   339                           
   340  0070                     ?___wmul:	
   341                           ; 1 bytes @ 0x0
   342                           
   343  0070                     ?___awdiv:	
   344                           ; 2 bytes @ 0x0
   345                           
   346  0070                     ?___awmod:	
   347                           ; 2 bytes @ 0x0
   348                           
   349  0070                     ___wmul@multiplier:	
   350                           ; 2 bytes @ 0x0
   351                           
   352  0070                     ___awdiv@divisor:	
   353                           ; 2 bytes @ 0x0
   354                           
   355  0070                     ___awmod@divisor:	
   356                           ; 2 bytes @ 0x0
   357                           
   358                           
   359                           ; 2 bytes @ 0x0
   360  0070                     	ds	2
   361  0072                     ??_data_read:	
   362  0072                     ?_data_write:	
   363                           ; 1 bytes @ 0x2
   364                           
   365  0072                     disp_cc@digit:	
   366                           ; 1 bytes @ 0x2
   367                           
   368  0072                     data_read@addr:	
   369                           ; 1 bytes @ 0x2
   370                           
   371  0072                     data_write@data:	
   372                           ; 1 bytes @ 0x2
   373                           
   374  0072                     ___wmul@multiplicand:	
   375                           ; 1 bytes @ 0x2
   376                           
   377  0072                     ___awdiv@dividend:	
   378                           ; 2 bytes @ 0x2
   379                           
   380  0072                     ___awmod@dividend:	
   381                           ; 2 bytes @ 0x2
   382                           
   383                           
   384                           ; 2 bytes @ 0x2
   385  0072                     	ds	1
   386  0073                     ??_data_write:	
   387  0073                     ?_cont_data_read:	
   388                           ; 1 bytes @ 0x3
   389                           
   390  0073                     disp_cc@PORT:	
   391                           ; 1 bytes @ 0x3
   392                           
   393  0073                     data_write@addr:	
   394                           ; 1 bytes @ 0x3
   395                           
   396  0073                     cont_data_read@start:	
   397                           ; 1 bytes @ 0x3
   398                           
   399                           
   400                           ; 1 bytes @ 0x3
   401  0073                     	ds	1
   402  0074                     ??___wmul:	
   403  0074                     ??___awdiv:	
   404                           ; 1 bytes @ 0x4
   405                           
   406  0074                     ??___awmod:	
   407                           ; 1 bytes @ 0x4
   408                           
   409  0074                     data_write@prev_gie:	
   410                           ; 1 bytes @ 0x4
   411                           
   412  0074                     cont_data_read@len:	
   413                           ; 1 bytes @ 0x4
   414                           
   415  0074                     ___wmul@product:	
   416                           ; 1 bytes @ 0x4
   417                           
   418                           
   419                           ; 2 bytes @ 0x4
   420  0074                     	ds	1
   421  0075                     ?_cont_data_write:	
   422  0075                     ?_data_clear:	
   423                           ; 1 bytes @ 0x5
   424                           
   425  0075                     cont_data_read@end_char:	
   426                           ; 1 bytes @ 0x5
   427                           
   428  0075                     cont_data_write@arr:	
   429                           ; 1 bytes @ 0x5
   430                           
   431  0075                     data_clear@end:	
   432                           ; 1 bytes @ 0x5
   433                           
   434  0075                     ___awdiv@counter:	
   435                           ; 1 bytes @ 0x5
   436                           
   437  0075                     ___awmod@counter:	
   438                           ; 1 bytes @ 0x5
   439                           
   440                           
   441                           ; 1 bytes @ 0x5
   442  0075                     	ds	1
   443  0076                     ??_cont_data_read:	
   444  0076                     ??_data_clear:	
   445                           ; 1 bytes @ 0x6
   446                           
   447  0076                     cont_data_write@end_char:	
   448                           ; 1 bytes @ 0x6
   449                           
   450  0076                     ___awdiv@sign:	
   451                           ; 1 bytes @ 0x6
   452                           
   453  0076                     ___awmod@sign:	
   454                           ; 1 bytes @ 0x6
   455                           
   456                           
   457                           ; 1 bytes @ 0x6
   458  0076                     	ds	1
   459  0077                     ??_cont_data_write:	
   460  0077                     data_clear@start:	
   461                           ; 1 bytes @ 0x7
   462                           
   463  0077                     ___awdiv@quotient:	
   464                           ; 1 bytes @ 0x7
   465                           
   466                           
   467                           ; 2 bytes @ 0x7
   468  0077                     	ds	1
   469  0078                     cont_data_read@data:	
   470  0078                     data_clear@addr:	
   471                           ; 1 bytes @ 0x8
   472                           
   473                           
   474                           ; 1 bytes @ 0x8
   475  0078                     	ds	1
   476  0079                     ?_disp_dig:	
   477  0079                     cont_data_read@i:	
   478                           ; 1 bytes @ 0x9
   479                           
   480  0079                     cont_data_write@start:	
   481                           ; 1 bytes @ 0x9
   482                           
   483  0079                     disp_dig@dig:	
   484                           ; 1 bytes @ 0x9
   485                           
   486                           
   487                           ; 1 bytes @ 0x9
   488  0079                     	ds	1
   489  007A                     ??_disp_dig:	
   490  007A                     cont_data_write@len:	
   491                           ; 1 bytes @ 0xA
   492                           
   493                           
   494                           ; 1 bytes @ 0xA
   495  007A                     	ds	1
   496  007B                     cont_data_write@i:	
   497                           
   498                           ; 1 bytes @ 0xB
   499  007B                     	ds	1
   500  007C                     disp_dig@n:	
   501  007C                     alarm_init@i:	
   502                           ; 1 bytes @ 0xC
   503                           
   504                           
   505                           ; 1 bytes @ 0xC
   506  007C                     	ds	1
   507  007D                     ?_disp:	
   508  007D                     ??_disp_alarm_no:	
   509                           ; 1 bytes @ 0xD
   510                           
   511  007D                     ??_disp_alarm_state:	
   512                           ; 1 bytes @ 0xD
   513                           
   514  007D                     disp@_2:	
   515                           ; 1 bytes @ 0xD
   516                           
   517                           
   518                           ; 1 bytes @ 0xD
   519  007D                     	ds	1
   520  007E                     ??_disp_alarm:	
   521                           
   522                           	psect	cstackBANK0
   523  0020                     __pcstackBANK0:	
   524                           ; 1 bytes @ 0xE
   525                           
   526  0020                     ??_disp:	
   527  0020                     ??_alarm_init:	
   528                           ; 1 bytes @ 0x0
   529                           
   530  0020                     disp_alarm_no@i:	
   531                           ; 1 bytes @ 0x0
   532                           
   533  0020                     disp_alarm_state@i:	
   534                           ; 1 bytes @ 0x0
   535                           
   536                           
   537                           ; 1 bytes @ 0x0
   538  0020                     	ds	1
   539  0021                     disp_alarm_state@i_222:	
   540                           
   541                           ; 1 bytes @ 0x1
   542  0021                     	ds	2
   543  0023                     disp@_1:	
   544                           
   545                           ; 1 bytes @ 0x3
   546  0023                     	ds	1
   547  0024                     ?_buzz:	
   548  0024                     buzz@t2:	
   549                           ; 1 bytes @ 0x4
   550                           
   551                           
   552                           ; 1 bytes @ 0x4
   553  0024                     	ds	1
   554  0025                     ??_buzz:	
   555                           
   556                           ; 1 bytes @ 0x5
   557  0025                     	ds	1
   558  0026                     buzz@t1:	
   559                           
   560                           ; 1 bytes @ 0x6
   561  0026                     	ds	1
   562  0027                     buzz@j:	
   563                           
   564                           ; 1 bytes @ 0x7
   565  0027                     	ds	1
   566  0028                     ?_set_time:	
   567  0028                     set_time@i:	
   568                           ; 1 bytes @ 0x8
   569                           
   570                           
   571                           ; 1 bytes @ 0x8
   572  0028                     	ds	1
   573  0029                     ??_set_time:	
   574                           
   575                           ; 1 bytes @ 0x9
   576  0029                     	ds	2
   577  002B                     set_time@j:	
   578                           
   579                           ; 1 bytes @ 0xB
   580  002B                     	ds	1
   581  002C                     set_time@k:	
   582                           
   583                           ; 1 bytes @ 0xC
   584  002C                     	ds	1
   585  002D                     set_time@k_205:	
   586                           
   587                           ; 1 bytes @ 0xD
   588  002D                     	ds	1
   589  002E                     set_time@j_211:	
   590                           
   591                           ; 1 bytes @ 0xE
   592  002E                     	ds	1
   593  002F                     set_time@j_207:	
   594                           
   595                           ; 1 bytes @ 0xF
   596  002F                     	ds	1
   597  0030                     set_time@j_208:	
   598                           
   599                           ; 1 bytes @ 0x10
   600  0030                     	ds	1
   601  0031                     set_time@j_209:	
   602                           
   603                           ; 1 bytes @ 0x11
   604  0031                     	ds	1
   605  0032                     set_time@j_210:	
   606                           
   607                           ; 1 bytes @ 0x12
   608  0032                     	ds	1
   609  0033                     set_time@arr:	
   610                           
   611                           ; 1 bytes @ 0x13
   612  0033                     	ds	1
   613  0034                     ??_main:	
   614                           
   615                           ; 1 bytes @ 0x14
   616  0034                     	ds	9
   617  003D                     main@pre_al_no:	
   618                           
   619                           ; 1 bytes @ 0x1D
   620  003D                     	ds	1
   621  003E                     main@pre_al_state:	
   622                           
   623                           ; 1 bytes @ 0x1E
   624  003E                     	ds	1
   625  003F                     main@j:	
   626                           
   627                           ; 1 bytes @ 0x1F
   628  003F                     	ds	1
   629  0040                     main@j_238:	
   630                           
   631                           ; 1 bytes @ 0x20
   632  0040                     	ds	1
   633  0041                     main@j_239:	
   634                           
   635                           ; 1 bytes @ 0x21
   636  0041                     	ds	1
   637  0042                     main@j_240:	
   638                           
   639                           ; 1 bytes @ 0x22
   640  0042                     	ds	1
   641  0043                     main@j_243:	
   642                           
   643                           ; 1 bytes @ 0x23
   644  0043                     	ds	1
   645  0044                     main@i:	
   646                           
   647                           ; 1 bytes @ 0x24
   648  0044                     	ds	1
   649  0045                     main@time_sum:	
   650                           
   651                           ; 2 bytes @ 0x25
   652  0045                     	ds	2
   653                           
   654                           	psect	maintext
   655  02FA                     __pmaintext:	
   656 ;;
   657 ;;Main: autosize = 0, tempsize = 9, incstack = 0, save=0
   658 ;;
   659 ;; *************** function _main *****************
   660 ;; Defined at:
   661 ;;		line 294 in file "alarm.c"
   662 ;; Parameters:    Size  Location     Type
   663 ;;		None
   664 ;; Auto vars:     Size  Location     Type
   665 ;;  j               1   34[BANK0 ] unsigned char 
   666 ;;  j               1   33[BANK0 ] unsigned char 
   667 ;;  j               1   32[BANK0 ] unsigned char 
   668 ;;  j               1   31[BANK0 ] unsigned char 
   669 ;;  j               1   35[BANK0 ] unsigned char 
   670 ;;  i               1   36[BANK0 ] unsigned char 
   671 ;;  pre_al_state    1   30[BANK0 ] unsigned char 
   672 ;;  time_sum        2   37[BANK0 ] int 
   673 ;;  pre_al_no       1   29[BANK0 ] unsigned char 
   674 ;; Return value:  Size  Location     Type
   675 ;;                  1    wreg      void 
   676 ;; Registers used:
   677 ;;		wreg, fsr0l, fsr0h, status,2, status,0, pclath, cstack
   678 ;; Tracked objects:
   679 ;;		On entry : B00/0
   680 ;;		On exit  : 0/0
   681 ;;		Unchanged: 0/0
   682 ;; Data sizes:     COMMON   BANK0   BANK1   BANK3   BANK2
   683 ;;      Params:         0       0       0       0       0
   684 ;;      Locals:         0      10       0       0       0
   685 ;;      Temps:          0       9       0       0       0
   686 ;;      Totals:         0      19       0       0       0
   687 ;;Total ram usage:       19 bytes
   688 ;; Hardware stack levels required when called:    5
   689 ;; This function calls:
   690 ;;		___awdiv
   691 ;;		___awmod
   692 ;;		___wmul
   693 ;;		_alarm_init
   694 ;;		_buzz
   695 ;;		_cont_data_write
   696 ;;		_data_clear
   697 ;;		_data_init
   698 ;;		_data_write
   699 ;;		_disp
   700 ;;		_disp_alarm
   701 ;;		_disp_alarm_state
   702 ;;		_real_time_counter
   703 ;;		_set_time
   704 ;; This function is called by:
   705 ;;		Startup code after reset
   706 ;; This function uses a non-reentrant model
   707 ;;
   708                           
   709                           
   710                           ;psect for function _main
   711  02FA                     _main:	
   712  02FA                     l2707:	
   713                           ;incstack = 0
   714                           ; Regs used in _main: [wreg-fsr0h+status,2+status,0+pclath+cstack]
   715                           
   716                           
   717                           ;alarm.c: 295:     TRISA = TRISD = TRISE = TRISB = 0;
   718  02FA  1683               	bsf	3,5	;RP0=1, select bank1
   719  02FB  1303               	bcf	3,6	;RP1=0, select bank1
   720  02FC  0186               	clrf	6	;volatile
   721  02FD  0189               	clrf	9	;volatile
   722  02FE  0188               	clrf	8	;volatile
   723  02FF  0185               	clrf	5	;volatile
   724  0300                     l2709:	
   725                           
   726                           ;alarm.c: 296:     TRISC = 0B00001111;
   727  0300  300F               	movlw	15
   728  0301  0087               	movwf	7	;volatile
   729  0302                     l2711:	
   730                           
   731                           ;alarm.c: 297:     PORTA = PORTB = PORTC = PORTD = PORTE = 0;
   732  0302  1283               	bcf	3,5	;RP0=0, select bank0
   733  0303  1303               	bcf	3,6	;RP1=0, select bank0
   734  0304  0189               	clrf	9	;volatile
   735  0305  0188               	clrf	8	;volatile
   736  0306  0187               	clrf	7	;volatile
   737  0307  0186               	clrf	6	;volatile
   738  0308  0185               	clrf	5	;volatile
   739                           
   740                           ;alarm.c: 298:     T1CON = 0b00110000; TMR1 = 0;
   741  0309  3030               	movlw	48
   742  030A  0090               	movwf	16	;volatile
   743  030B                     l2713:	
   744  030B  018E               	clrf	14	;volatile
   745  030C  018F               	clrf	15	;volatile
   746  030D                     l2715:	
   747                           
   748                           ;alarm.c: 299:     data_init();
   749  030D  120A  158A  2306  120A  118A  	fcall	_data_init
   750  0312                     l2717:	
   751                           
   752                           ;alarm.c: 300:     _delay((unsigned long)((50)*(20000000/4000.0)));
   753  0312  3002               	movlw	2
   754  0313  1283               	bcf	3,5	;RP0=0, select bank0
   755  0314  1303               	bcf	3,6	;RP1=0, select bank0
   756  0315  00B6               	movwf	??_main+2
   757  0316  3045               	movlw	69
   758  0317  00B5               	movwf	??_main+1
   759  0318  30A9               	movlw	169
   760  0319  00B4               	movwf	??_main
   761  031A                     u3557:	
   762  031A  0BB4               	decfsz	??_main,f
   763  031B  2B1A               	goto	u3557
   764  031C  0BB5               	decfsz	??_main+1,f
   765  031D  2B1A               	goto	u3557
   766  031E  0BB6               	decfsz	??_main+2,f
   767  031F  2B1A               	goto	u3557
   768  0320                     l2719:	
   769                           
   770                           ;alarm.c: 301:     data_clear(0x00, 0x20);
   771  0320  3020               	movlw	32
   772  0321  1283               	bcf	3,5	;RP0=0, select bank0
   773  0322  1303               	bcf	3,6	;RP1=0, select bank0
   774  0323  00B4               	movwf	??_main
   775  0324  0834               	movf	??_main,w
   776  0325  00F5               	movwf	data_clear@end
   777  0326  3000               	movlw	0
   778  0327  120A  158A  23DA  120A  118A  	fcall	_data_clear
   779  032C                     l2721:	
   780                           
   781                           ;alarm.c: 309:     alarm_init();
   782  032C  120A  118A  225C  120A  118A  	fcall	_alarm_init
   783  0331                     l2723:	
   784                           
   785                           ;alarm.c: 310:     RC5 = 1;
   786  0331  1283               	bcf	3,5	;RP0=0, select bank0
   787  0332  1303               	bcf	3,6	;RP1=0, select bank0
   788  0333  1687               	bsf	7,5	;volatile
   789  0334                     l2725:	
   790                           
   791                           ;alarm.c: 314:     hr = min = 0;
   792  0334  01DB               	clrf	_min
   793  0335  01DC               	clrf	_hr
   794  0336                     l2727:	
   795                           
   796                           ;alarm.c: 315:     TMR1ON = 1;
   797  0336  1410               	bsf	16,0	;volatile
   798  0337                     l2729:	
   799                           
   800                           ;alarm.c: 319:         disp(hr, min);
   801  0337  1283               	bcf	3,5	;RP0=0, select bank0
   802  0338  1303               	bcf	3,6	;RP1=0, select bank0
   803  0339  085B               	movf	_min,w
   804  033A  00B4               	movwf	??_main
   805  033B  0834               	movf	??_main,w
   806  033C  00FD               	movwf	disp@_2
   807  033D  085C               	movf	_hr,w
   808  033E  120A  118A  20C6  120A  118A  	fcall	_disp
   809  0343                     l2731:	
   810                           
   811                           ;alarm.c: 320:         real_time_counter();
   812  0343  120A  158A  2443  120A  118A  	fcall	_real_time_counter
   813  0348                     l2733:	
   814                           
   815                           ;alarm.c: 333:         int time_sum = hr*60 + min;
   816  0348  1283               	bcf	3,5	;RP0=0, select bank0
   817  0349  1303               	bcf	3,6	;RP1=0, select bank0
   818  034A  085C               	movf	_hr,w
   819  034B  00B4               	movwf	??_main
   820  034C  01B5               	clrf	??_main+1
   821  034D  0834               	movf	??_main,w
   822  034E  00F0               	movwf	___wmul@multiplier
   823  034F  0835               	movf	??_main+1,w
   824  0350  00F1               	movwf	___wmul@multiplier+1
   825  0351  303C               	movlw	60
   826  0352  00F2               	movwf	___wmul@multiplicand
   827  0353  3000               	movlw	0
   828  0354  00F3               	movwf	___wmul@multiplicand+1
   829  0355  120A  158A  2388  120A  118A  	fcall	___wmul
   830  035A  1283               	bcf	3,5	;RP0=0, select bank0
   831  035B  1303               	bcf	3,6	;RP1=0, select bank0
   832  035C  085B               	movf	_min,w
   833  035D  0770               	addwf	?___wmul,w
   834  035E  00C5               	movwf	main@time_sum
   835  035F  3000               	movlw	0
   836  0360  1803               	skipnc
   837  0361  3001               	movlw	1
   838  0362  0771               	addwf	?___wmul+1,w
   839  0363  00C6               	movwf	main@time_sum+1
   840                           
   841                           ;alarm.c: 334:         char pre_al_no = alarm_no;
   842  0364  085D               	movf	_alarm_no,w
   843  0365  00B4               	movwf	??_main
   844  0366  0834               	movf	??_main,w
   845  0367  00BD               	movwf	main@pre_al_no
   846  0368                     l2735:	
   847                           
   848                           ;alarm.c: 336:         for(alarm_no = 0; alarm_no < 4; alarm_no++){
   849  0368  01DD               	clrf	_alarm_no
   850  0369                     l2737:	
   851  0369  3004               	movlw	4
   852  036A  025D               	subwf	_alarm_no,w
   853  036B  1C03               	skipc
   854  036C  2B6E               	goto	u2801
   855  036D  2B6F               	goto	u2800
   856  036E                     u2801:	
   857  036E  2B70               	goto	l2741
   858  036F                     u2800:	
   859  036F  2DA6               	goto	l2891
   860  0370                     l2741:	
   861                           
   862                           ;alarm.c: 337:             real_time_counter();
   863  0370  120A  158A  2443  120A  118A  	fcall	_real_time_counter
   864  0375                     l2743:	
   865                           
   866                           ;alarm.c: 339:             if(((al_state & (1 << alarm_no)) && (time_sum == alarms[alarm
      +                          _no])) || ((snz_state & (1 << alarm_no)) && (time_sum == snz[alarm_no]))){
   867  0375  3001               	movlw	1
   868  0376  1283               	bcf	3,5	;RP0=0, select bank0
   869  0377  1303               	bcf	3,6	;RP1=0, select bank0
   870  0378  00B4               	movwf	??_main
   871  0379  0A5D               	incf	_alarm_no,w
   872  037A  2B7D               	goto	u2814
   873  037B                     u2815:	
   874  037B  1003               	clrc
   875  037C  0DB4               	rlf	??_main,f
   876  037D                     u2814:	
   877  037D  3EFF               	addlw	-1
   878  037E  1D03               	skipz
   879  037F  2B7B               	goto	u2815
   880  0380  0834               	movf	??_main,w
   881  0381  0559               	andwf	_al_state,w
   882  0382  1903               	btfsc	3,2
   883  0383  2B85               	goto	u2821
   884  0384  2B86               	goto	u2820
   885  0385                     u2821:	
   886  0385  2B9B               	goto	l2747
   887  0386                     u2820:	
   888  0386                     l2745:	
   889  0386  085D               	movf	_alarm_no,w
   890  0387  00B4               	movwf	??_main
   891  0388  0734               	addwf	??_main,w
   892  0389  3E4F               	addlw	(low (_alarms| 0))& (0+255)
   893  038A  0084               	movwf	4
   894  038B  1383               	bcf	3,7	;select IRP bank0
   895  038C  0800               	movf	0,w
   896  038D  00B5               	movwf	??_main+1
   897  038E  0A84               	incf	4,f
   898  038F  0800               	movf	0,w
   899  0390  00B6               	movwf	??_main+2
   900  0391  0846               	movf	main@time_sum+1,w
   901  0392  0636               	xorwf	??_main+2,w
   902  0393  1D03               	skipz
   903  0394  2B97               	goto	u2835
   904  0395  0845               	movf	main@time_sum,w
   905  0396  0635               	xorwf	??_main+1,w
   906  0397                     u2835:	
   907  0397  1903               	skipnz
   908  0398  2B9A               	goto	u2831
   909  0399  2B9B               	goto	u2830
   910  039A                     u2831:	
   911  039A  2BBF               	goto	l2751
   912  039B                     u2830:	
   913  039B                     l2747:	
   914  039B  3001               	movlw	1
   915  039C  00B4               	movwf	??_main
   916  039D  0A5D               	incf	_alarm_no,w
   917  039E  2BA1               	goto	u2844
   918  039F                     u2845:	
   919  039F  1003               	clrc
   920  03A0  0DB4               	rlf	??_main,f
   921  03A1                     u2844:	
   922  03A1  3EFF               	addlw	-1
   923  03A2  1D03               	skipz
   924  03A3  2B9F               	goto	u2845
   925  03A4  0834               	movf	??_main,w
   926  03A5  0558               	andwf	_snz_state,w
   927  03A6  1903               	btfsc	3,2
   928  03A7  2BA9               	goto	u2851
   929  03A8  2BAA               	goto	u2850
   930  03A9                     u2851:	
   931  03A9  2DA1               	goto	l2887
   932  03AA                     u2850:	
   933  03AA                     l2749:	
   934  03AA  085D               	movf	_alarm_no,w
   935  03AB  00B4               	movwf	??_main
   936  03AC  0734               	addwf	??_main,w
   937  03AD  3E47               	addlw	(low (_snz| 0))& (0+255)
   938  03AE  0084               	movwf	4
   939  03AF  1383               	bcf	3,7	;select IRP bank0
   940  03B0  0800               	movf	0,w
   941  03B1  00B5               	movwf	??_main+1
   942  03B2  0A84               	incf	4,f
   943  03B3  0800               	movf	0,w
   944  03B4  00B6               	movwf	??_main+2
   945  03B5  0846               	movf	main@time_sum+1,w
   946  03B6  0636               	xorwf	??_main+2,w
   947  03B7  1D03               	skipz
   948  03B8  2BBB               	goto	u2865
   949  03B9  0845               	movf	main@time_sum,w
   950  03BA  0635               	xorwf	??_main+1,w
   951  03BB                     u2865:	
   952  03BB  1D03               	skipz
   953  03BC  2BBE               	goto	u2861
   954  03BD  2BBF               	goto	u2860
   955  03BE                     u2861:	
   956  03BE  2DA1               	goto	l2887
   957  03BF                     u2860:	
   958  03BF                     l2751:	
   959                           
   960                           ;alarm.c: 340:                 alarm_h = time_sum / 60;
   961  03BF  303C               	movlw	60
   962  03C0  00F0               	movwf	___awdiv@divisor
   963  03C1  3000               	movlw	0
   964  03C2  00F1               	movwf	___awdiv@divisor+1
   965  03C3  0846               	movf	main@time_sum+1,w
   966  03C4  00F3               	movwf	___awdiv@dividend+1
   967  03C5  0845               	movf	main@time_sum,w
   968  03C6  00F2               	movwf	___awdiv@dividend
   969  03C7  120A  118A  205F  120A  118A  	fcall	___awdiv
   970  03CC  0870               	movf	?___awdiv,w
   971  03CD  1283               	bcf	3,5	;RP0=0, select bank0
   972  03CE  1303               	bcf	3,6	;RP1=0, select bank0
   973  03CF  00B4               	movwf	??_main
   974  03D0  0834               	movf	??_main,w
   975  03D1  00DF               	movwf	_alarm_h
   976                           
   977                           ;alarm.c: 341:                 alarm_m = time_sum % 60;
   978  03D2  303C               	movlw	60
   979  03D3  00F0               	movwf	___awmod@divisor
   980  03D4  3000               	movlw	0
   981  03D5  00F1               	movwf	___awmod@divisor+1
   982  03D6  0846               	movf	main@time_sum+1,w
   983  03D7  00F3               	movwf	___awmod@dividend+1
   984  03D8  0845               	movf	main@time_sum,w
   985  03D9  00F2               	movwf	___awmod@dividend
   986  03DA  120A  118A  2006  120A  118A  	fcall	___awmod
   987  03DF  0870               	movf	?___awmod,w
   988  03E0  1283               	bcf	3,5	;RP0=0, select bank0
   989  03E1  1303               	bcf	3,6	;RP1=0, select bank0
   990  03E2  00B4               	movwf	??_main
   991  03E3  0834               	movf	??_main,w
   992  03E4  00DE               	movwf	_alarm_m
   993  03E5                     l2753:	
   994                           
   995                           ;alarm.c: 344:                 for(char i = 0; i < 15; i++){
   996  03E5  01C4               	clrf	main@i
   997  03E6                     l2755:	
   998  03E6  300F               	movlw	15
   999  03E7  0244               	subwf	main@i,w
  1000  03E8  1C03               	skipc
  1001  03E9  2BEB               	goto	u2871
  1002  03EA  2BEC               	goto	u2870
  1003  03EB                     u2871:	
  1004  03EB  2BED               	goto	l2759
  1005  03EC                     u2870:	
  1006  03EC  2CC0               	goto	l2839
  1007  03ED                     l2759:	
  1008                           
  1009                           ;alarm.c: 346:                     for(char j = 0; j < 2 && !(RC1 || RC0 || RC2); j++) b
      +                          uzz(alarm_h, alarm_m);
  1010  03ED  01BF               	clrf	main@j
  1011  03EE  2BFF               	goto	l2765
  1012  03EF                     l2761:	
  1013  03EF  085E               	movf	_alarm_m,w
  1014  03F0  00B4               	movwf	??_main
  1015  03F1  0834               	movf	??_main,w
  1016  03F2  00A4               	movwf	buzz@t2
  1017  03F3  085F               	movf	_alarm_h,w
  1018  03F4  120A  158A  2364  120A  118A  	fcall	_buzz
  1019  03F9                     l2763:	
  1020  03F9  3001               	movlw	1
  1021  03FA  1283               	bcf	3,5	;RP0=0, select bank0
  1022  03FB  1303               	bcf	3,6	;RP1=0, select bank0
  1023  03FC  00B4               	movwf	??_main
  1024  03FD  0834               	movf	??_main,w
  1025  03FE  07BF               	addwf	main@j,f
  1026  03FF                     l2765:	
  1027  03FF  3002               	movlw	2
  1028  0400  023F               	subwf	main@j,w
  1029  0401  1803               	skipnc
  1030  0402  2C04               	goto	u2881
  1031  0403  2C05               	goto	u2880
  1032  0404                     u2881:	
  1033  0404  2C11               	goto	l327
  1034  0405                     u2880:	
  1035  0405                     l2767:	
  1036  0405  1887               	btfsc	7,1	;volatile
  1037  0406  2C08               	goto	u2891
  1038  0407  2C09               	goto	u2890
  1039  0408                     u2891:	
  1040  0408  2C11               	goto	l327
  1041  0409                     u2890:	
  1042  0409                     l2769:	
  1043  0409  1807               	btfsc	7,0	;volatile
  1044  040A  2C0C               	goto	u2901
  1045  040B  2C0D               	goto	u2900
  1046  040C                     u2901:	
  1047  040C  2C11               	goto	l327
  1048  040D                     u2900:	
  1049  040D                     l2771:	
  1050  040D  1D07               	btfss	7,2	;volatile
  1051  040E  2C10               	goto	u2911
  1052  040F  2C11               	goto	u2910
  1053  0410                     u2911:	
  1054  0410  2BEF               	goto	l2761
  1055  0411                     u2910:	
  1056  0411                     l327:	
  1057                           
  1058                           ;alarm.c: 347:                     if(RC1 || RC0 || RC2) break;
  1059  0411  1887               	btfsc	7,1	;volatile
  1060  0412  2C14               	goto	u2921
  1061  0413  2C15               	goto	u2920
  1062  0414                     u2921:	
  1063  0414  2CC0               	goto	l2839
  1064  0415                     u2920:	
  1065  0415                     l2773:	
  1066  0415  1807               	btfsc	7,0	;volatile
  1067  0416  2C18               	goto	u2931
  1068  0417  2C19               	goto	u2930
  1069  0418                     u2931:	
  1070  0418  2CC0               	goto	l2839
  1071  0419                     u2930:	
  1072  0419                     l2775:	
  1073  0419  1D07               	btfss	7,2	;volatile
  1074  041A  2C1C               	goto	u2941
  1075  041B  2C1D               	goto	u2940
  1076  041C                     u2941:	
  1077  041C  2C1E               	goto	l2777
  1078  041D                     u2940:	
  1079  041D  2CC0               	goto	l2839
  1080  041E                     l2777:	
  1081                           
  1082                           ;alarm.c: 349:                     for(char j = 0; j < 10 && !(RC1 || RC0 || RC2); j++){
  1083  041E  01C0               	clrf	main@j_238
  1084  041F  2C35               	goto	l2785
  1085  0420                     l2779:	
  1086                           
  1087                           ;alarm.c: 350:                         disp(alarm_h, alarm_m);
  1088  0420  085E               	movf	_alarm_m,w
  1089  0421  00B4               	movwf	??_main
  1090  0422  0834               	movf	??_main,w
  1091  0423  00FD               	movwf	disp@_2
  1092  0424  085F               	movf	_alarm_h,w
  1093  0425  120A  118A  20C6  120A  118A  	fcall	_disp
  1094  042A                     l2781:	
  1095                           
  1096                           ;alarm.c: 351:                         real_time_counter();
  1097  042A  120A  158A  2443  120A  118A  	fcall	_real_time_counter
  1098  042F                     l2783:	
  1099                           
  1100                           ;alarm.c: 352:                     }
  1101  042F  3001               	movlw	1
  1102  0430  1283               	bcf	3,5	;RP0=0, select bank0
  1103  0431  1303               	bcf	3,6	;RP1=0, select bank0
  1104  0432  00B4               	movwf	??_main
  1105  0433  0834               	movf	??_main,w
  1106  0434  07C0               	addwf	main@j_238,f
  1107  0435                     l2785:	
  1108  0435  300A               	movlw	10
  1109  0436  0240               	subwf	main@j_238,w
  1110  0437  1803               	skipnc
  1111  0438  2C3A               	goto	u2951
  1112  0439  2C3B               	goto	u2950
  1113  043A                     u2951:	
  1114  043A  2C47               	goto	l337
  1115  043B                     u2950:	
  1116  043B                     l2787:	
  1117  043B  1887               	btfsc	7,1	;volatile
  1118  043C  2C3E               	goto	u2961
  1119  043D  2C3F               	goto	u2960
  1120  043E                     u2961:	
  1121  043E  2C47               	goto	l337
  1122  043F                     u2960:	
  1123  043F                     l2789:	
  1124  043F  1807               	btfsc	7,0	;volatile
  1125  0440  2C42               	goto	u2971
  1126  0441  2C43               	goto	u2970
  1127  0442                     u2971:	
  1128  0442  2C47               	goto	l337
  1129  0443                     u2970:	
  1130  0443                     l2791:	
  1131  0443  1D07               	btfss	7,2	;volatile
  1132  0444  2C46               	goto	u2981
  1133  0445  2C47               	goto	u2980
  1134  0446                     u2981:	
  1135  0446  2C20               	goto	l2779
  1136  0447                     u2980:	
  1137  0447                     l337:	
  1138                           
  1139                           ;alarm.c: 353:                     if(RC1 || RC0 || RC2) break;
  1140  0447  1887               	btfsc	7,1	;volatile
  1141  0448  2C4A               	goto	u2991
  1142  0449  2C4B               	goto	u2990
  1143  044A                     u2991:	
  1144  044A  2CC0               	goto	l2839
  1145  044B                     u2990:	
  1146  044B                     l2793:	
  1147  044B  1807               	btfsc	7,0	;volatile
  1148  044C  2C4E               	goto	u3001
  1149  044D  2C4F               	goto	u3000
  1150  044E                     u3001:	
  1151  044E  2CC0               	goto	l2839
  1152  044F                     u3000:	
  1153  044F                     l2795:	
  1154  044F  1D07               	btfss	7,2	;volatile
  1155  0450  2C52               	goto	u3011
  1156  0451  2C53               	goto	u3010
  1157  0452                     u3011:	
  1158  0452  2C54               	goto	l2797
  1159  0453                     u3010:	
  1160  0453  2CC0               	goto	l2839
  1161  0454                     l2797:	
  1162                           
  1163                           ;alarm.c: 355:                     for(char j = 0; j < 2 && !(RC1 || RC0 || RC2); j++) b
      +                          uzz(alarm_h, alarm_m);
  1164  0454  01C1               	clrf	main@j_239
  1165  0455  2C66               	goto	l2803
  1166  0456                     l2799:	
  1167  0456  085E               	movf	_alarm_m,w
  1168  0457  00B4               	movwf	??_main
  1169  0458  0834               	movf	??_main,w
  1170  0459  00A4               	movwf	buzz@t2
  1171  045A  085F               	movf	_alarm_h,w
  1172  045B  120A  158A  2364  120A  118A  	fcall	_buzz
  1173  0460                     l2801:	
  1174  0460  3001               	movlw	1
  1175  0461  1283               	bcf	3,5	;RP0=0, select bank0
  1176  0462  1303               	bcf	3,6	;RP1=0, select bank0
  1177  0463  00B4               	movwf	??_main
  1178  0464  0834               	movf	??_main,w
  1179  0465  07C1               	addwf	main@j_239,f
  1180  0466                     l2803:	
  1181  0466  3002               	movlw	2
  1182  0467  0241               	subwf	main@j_239,w
  1183  0468  1803               	skipnc
  1184  0469  2C6B               	goto	u3021
  1185  046A  2C6C               	goto	u3020
  1186  046B                     u3021:	
  1187  046B  2C78               	goto	l347
  1188  046C                     u3020:	
  1189  046C                     l2805:	
  1190  046C  1887               	btfsc	7,1	;volatile
  1191  046D  2C6F               	goto	u3031
  1192  046E  2C70               	goto	u3030
  1193  046F                     u3031:	
  1194  046F  2C78               	goto	l347
  1195  0470                     u3030:	
  1196  0470                     l2807:	
  1197  0470  1807               	btfsc	7,0	;volatile
  1198  0471  2C73               	goto	u3041
  1199  0472  2C74               	goto	u3040
  1200  0473                     u3041:	
  1201  0473  2C78               	goto	l347
  1202  0474                     u3040:	
  1203  0474                     l2809:	
  1204  0474  1D07               	btfss	7,2	;volatile
  1205  0475  2C77               	goto	u3051
  1206  0476  2C78               	goto	u3050
  1207  0477                     u3051:	
  1208  0477  2C56               	goto	l2799
  1209  0478                     u3050:	
  1210  0478                     l347:	
  1211                           
  1212                           ;alarm.c: 356:                     if(RC1 || RC0 || RC2) break;
  1213  0478  1887               	btfsc	7,1	;volatile
  1214  0479  2C7B               	goto	u3061
  1215  047A  2C7C               	goto	u3060
  1216  047B                     u3061:	
  1217  047B  2CC0               	goto	l2839
  1218  047C                     u3060:	
  1219  047C                     l2811:	
  1220  047C  1807               	btfsc	7,0	;volatile
  1221  047D  2C7F               	goto	u3071
  1222  047E  2C80               	goto	u3070
  1223  047F                     u3071:	
  1224  047F  2CC0               	goto	l2839
  1225  0480                     u3070:	
  1226  0480                     l2813:	
  1227  0480  1D07               	btfss	7,2	;volatile
  1228  0481  2C83               	goto	u3081
  1229  0482  2C84               	goto	u3080
  1230  0483                     u3081:	
  1231  0483  2C85               	goto	l2815
  1232  0484                     u3080:	
  1233  0484  2CC0               	goto	l2839
  1234  0485                     l2815:	
  1235                           
  1236                           ;alarm.c: 358:                     for(char j = 0; j < 50 && !(RC1 || RC0 || RC2); j++){
  1237  0485  01C2               	clrf	main@j_240
  1238  0486  2C9C               	goto	l2823
  1239  0487                     l2817:	
  1240                           
  1241                           ;alarm.c: 359:                         disp(alarm_h, alarm_m);
  1242  0487  085E               	movf	_alarm_m,w
  1243  0488  00B4               	movwf	??_main
  1244  0489  0834               	movf	??_main,w
  1245  048A  00FD               	movwf	disp@_2
  1246  048B  085F               	movf	_alarm_h,w
  1247  048C  120A  118A  20C6  120A  118A  	fcall	_disp
  1248  0491                     l2819:	
  1249                           
  1250                           ;alarm.c: 360:                         real_time_counter();
  1251  0491  120A  158A  2443  120A  118A  	fcall	_real_time_counter
  1252  0496                     l2821:	
  1253                           
  1254                           ;alarm.c: 361:                     }
  1255  0496  3001               	movlw	1
  1256  0497  1283               	bcf	3,5	;RP0=0, select bank0
  1257  0498  1303               	bcf	3,6	;RP1=0, select bank0
  1258  0499  00B4               	movwf	??_main
  1259  049A  0834               	movf	??_main,w
  1260  049B  07C2               	addwf	main@j_240,f
  1261  049C                     l2823:	
  1262  049C  3032               	movlw	50
  1263  049D  0242               	subwf	main@j_240,w
  1264  049E  1803               	skipnc
  1265  049F  2CA1               	goto	u3091
  1266  04A0  2CA2               	goto	u3090
  1267  04A1                     u3091:	
  1268  04A1  2CAE               	goto	l357
  1269  04A2                     u3090:	
  1270  04A2                     l2825:	
  1271  04A2  1887               	btfsc	7,1	;volatile
  1272  04A3  2CA5               	goto	u3101
  1273  04A4  2CA6               	goto	u3100
  1274  04A5                     u3101:	
  1275  04A5  2CAE               	goto	l357
  1276  04A6                     u3100:	
  1277  04A6                     l2827:	
  1278  04A6  1807               	btfsc	7,0	;volatile
  1279  04A7  2CA9               	goto	u3111
  1280  04A8  2CAA               	goto	u3110
  1281  04A9                     u3111:	
  1282  04A9  2CAE               	goto	l357
  1283  04AA                     u3110:	
  1284  04AA                     l2829:	
  1285  04AA  1D07               	btfss	7,2	;volatile
  1286  04AB  2CAD               	goto	u3121
  1287  04AC  2CAE               	goto	u3120
  1288  04AD                     u3121:	
  1289  04AD  2C87               	goto	l2817
  1290  04AE                     u3120:	
  1291  04AE                     l357:	
  1292                           
  1293                           ;alarm.c: 362:                     if(RC1 || RC0 || RC2) break;
  1294  04AE  1887               	btfsc	7,1	;volatile
  1295  04AF  2CB1               	goto	u3131
  1296  04B0  2CB2               	goto	u3130
  1297  04B1                     u3131:	
  1298  04B1  2CC0               	goto	l2839
  1299  04B2                     u3130:	
  1300  04B2                     l2831:	
  1301  04B2  1807               	btfsc	7,0	;volatile
  1302  04B3  2CB5               	goto	u3141
  1303  04B4  2CB6               	goto	u3140
  1304  04B5                     u3141:	
  1305  04B5  2CC0               	goto	l2839
  1306  04B6                     u3140:	
  1307  04B6                     l2833:	
  1308  04B6  1D07               	btfss	7,2	;volatile
  1309  04B7  2CB9               	goto	u3151
  1310  04B8  2CBA               	goto	u3150
  1311  04B9                     u3151:	
  1312  04B9  2CBB               	goto	l2835
  1313  04BA                     u3150:	
  1314  04BA  2CC0               	goto	l2839
  1315  04BB                     l2835:	
  1316                           
  1317                           ;alarm.c: 363:                 }
  1318  04BB  3001               	movlw	1
  1319  04BC  00B4               	movwf	??_main
  1320  04BD  0834               	movf	??_main,w
  1321  04BE  07C4               	addwf	main@i,f
  1322  04BF  2BE6               	goto	l2755
  1323  04C0                     l2839:	
  1324                           
  1325                           ;alarm.c: 365:                 if(snz_state & (1 << alarm_no)) snz_state -= 1 << alarm_n
      +                          o;
  1326  04C0  3001               	movlw	1
  1327  04C1  00B4               	movwf	??_main
  1328  04C2  0A5D               	incf	_alarm_no,w
  1329  04C3  2CC6               	goto	u3164
  1330  04C4                     u3165:	
  1331  04C4  1003               	clrc
  1332  04C5  0DB4               	rlf	??_main,f
  1333  04C6                     u3164:	
  1334  04C6  3EFF               	addlw	-1
  1335  04C7  1D03               	skipz
  1336  04C8  2CC4               	goto	u3165
  1337  04C9  0834               	movf	??_main,w
  1338  04CA  0558               	andwf	_snz_state,w
  1339  04CB  1903               	btfsc	3,2
  1340  04CC  2CCE               	goto	u3171
  1341  04CD  2CCF               	goto	u3170
  1342  04CE                     u3171:	
  1343  04CE  2CDA               	goto	l2843
  1344  04CF                     u3170:	
  1345  04CF                     l2841:	
  1346  04CF  3001               	movlw	1
  1347  04D0  00B4               	movwf	??_main
  1348  04D1  0A5D               	incf	_alarm_no,w
  1349  04D2  2CD5               	goto	u3184
  1350  04D3                     u3185:	
  1351  04D3  1003               	clrc
  1352  04D4  0DB4               	rlf	??_main,f
  1353  04D5                     u3184:	
  1354  04D5  3EFF               	addlw	-1
  1355  04D6  1D03               	skipz
  1356  04D7  2CD3               	goto	u3185
  1357  04D8  0834               	movf	??_main,w
  1358  04D9  02D8               	subwf	_snz_state,f
  1359  04DA                     l2843:	
  1360                           
  1361                           ;alarm.c: 367:                 if(RC1){
  1362  04DA  1C87               	btfss	7,1	;volatile
  1363  04DB  2CDD               	goto	u3191
  1364  04DC  2CDE               	goto	u3190
  1365  04DD                     u3191:	
  1366  04DD  2D11               	goto	l362
  1367  04DE                     u3190:	
  1368  04DE  2CEE               	goto	l2851
  1369  04DF                     l2847:	
  1370                           
  1371                           ;alarm.c: 369:                         disp(hr, min);
  1372  04DF  085B               	movf	_min,w
  1373  04E0  00B4               	movwf	??_main
  1374  04E1  0834               	movf	??_main,w
  1375  04E2  00FD               	movwf	disp@_2
  1376  04E3  085C               	movf	_hr,w
  1377  04E4  120A  118A  20C6  120A  118A  	fcall	_disp
  1378  04E9                     l2849:	
  1379                           
  1380                           ;alarm.c: 370:                         real_time_counter();
  1381  04E9  120A  158A  2443  120A  118A  	fcall	_real_time_counter
  1382  04EE                     l2851:	
  1383                           
  1384                           ;alarm.c: 368:                     while(RC1){
  1385  04EE  1283               	bcf	3,5	;RP0=0, select bank0
  1386  04EF  1303               	bcf	3,6	;RP1=0, select bank0
  1387  04F0  1887               	btfsc	7,1	;volatile
  1388  04F1  2CF3               	goto	u3201
  1389  04F2  2CF4               	goto	u3200
  1390  04F3                     u3201:	
  1391  04F3  2CDF               	goto	l2847
  1392  04F4                     u3200:	
  1393  04F4                     l2853:	
  1394                           
  1395                           ;alarm.c: 372:                     al_state -= 1 << alarm_no;
  1396  04F4  3001               	movlw	1
  1397  04F5  00B4               	movwf	??_main
  1398  04F6  0A5D               	incf	_alarm_no,w
  1399  04F7  2CFA               	goto	u3214
  1400  04F8                     u3215:	
  1401  04F8  1003               	clrc
  1402  04F9  0DB4               	rlf	??_main,f
  1403  04FA                     u3214:	
  1404  04FA  3EFF               	addlw	-1
  1405  04FB  1D03               	skipz
  1406  04FC  2CF8               	goto	u3215
  1407  04FD  0834               	movf	??_main,w
  1408  04FE  02D9               	subwf	_al_state,f
  1409  04FF                     l2855:	
  1410                           
  1411                           ;alarm.c: 373:                     real_time_counter();
  1412  04FF  120A  158A  2443  120A  118A  	fcall	_real_time_counter
  1413  0504                     l2857:	
  1414                           
  1415                           ;alarm.c: 374:                     data_write(0x08, al_state);
  1416  0504  1283               	bcf	3,5	;RP0=0, select bank0
  1417  0505  1303               	bcf	3,6	;RP1=0, select bank0
  1418  0506  0859               	movf	_al_state,w
  1419  0507  00B4               	movwf	??_main
  1420  0508  0834               	movf	??_main,w
  1421  0509  00F2               	movwf	data_write@data
  1422  050A  3008               	movlw	8
  1423  050B  120A  158A  24BD  120A  118A  	fcall	_data_write
  1424                           
  1425                           ;alarm.c: 375:                 }
  1426  0510  2DA6               	goto	l2891
  1427  0511                     l362:	
  1428                           ;alarm.c: 376:                 else if(RC0){
  1429                           
  1430  0511  1C07               	btfss	7,0	;volatile
  1431  0512  2D14               	goto	u3221
  1432  0513  2D15               	goto	u3220
  1433  0514                     u3221:	
  1434  0514  2D2C               	goto	l367
  1435  0515                     u3220:	
  1436  0515  2D25               	goto	l2865
  1437  0516                     l2861:	
  1438                           
  1439                           ;alarm.c: 378:                         disp(hr, min);
  1440  0516  085B               	movf	_min,w
  1441  0517  00B4               	movwf	??_main
  1442  0518  0834               	movf	??_main,w
  1443  0519  00FD               	movwf	disp@_2
  1444  051A  085C               	movf	_hr,w
  1445  051B  120A  118A  20C6  120A  118A  	fcall	_disp
  1446  0520                     l2863:	
  1447                           
  1448                           ;alarm.c: 379:                         real_time_counter();
  1449  0520  120A  158A  2443  120A  118A  	fcall	_real_time_counter
  1450  0525                     l2865:	
  1451                           
  1452                           ;alarm.c: 377:                     while(RC0){
  1453  0525  1283               	bcf	3,5	;RP0=0, select bank0
  1454  0526  1303               	bcf	3,6	;RP1=0, select bank0
  1455  0527  1807               	btfsc	7,0	;volatile
  1456  0528  2D2A               	goto	u3231
  1457  0529  2D2B               	goto	u3230
  1458  052A                     u3231:	
  1459  052A  2D16               	goto	l2861
  1460  052B                     u3230:	
  1461  052B  2DA6               	goto	l2891
  1462  052C                     l367:	
  1463                           ;alarm.c: 382:                 else if(RC2){
  1464                           
  1465  052C  1D07               	btfss	7,2	;volatile
  1466  052D  2D2F               	goto	u3241
  1467  052E  2D30               	goto	u3240
  1468  052F                     u3241:	
  1469  052F  2D69               	goto	l2879
  1470  0530                     u3240:	
  1471  0530  2D40               	goto	l2873
  1472  0531                     l2869:	
  1473                           
  1474                           ;alarm.c: 384:                         disp(hr, min);
  1475  0531  085B               	movf	_min,w
  1476  0532  00B4               	movwf	??_main
  1477  0533  0834               	movf	??_main,w
  1478  0534  00FD               	movwf	disp@_2
  1479  0535  085C               	movf	_hr,w
  1480  0536  120A  118A  20C6  120A  118A  	fcall	_disp
  1481  053B                     l2871:	
  1482                           
  1483                           ;alarm.c: 385:                         real_time_counter();
  1484  053B  120A  158A  2443  120A  118A  	fcall	_real_time_counter
  1485  0540                     l2873:	
  1486                           
  1487                           ;alarm.c: 383:                     while(RC2){
  1488  0540  1283               	bcf	3,5	;RP0=0, select bank0
  1489  0541  1303               	bcf	3,6	;RP1=0, select bank0
  1490  0542  1907               	btfsc	7,2	;volatile
  1491  0543  2D45               	goto	u3251
  1492  0544  2D46               	goto	u3250
  1493  0545                     u3251:	
  1494  0545  2D31               	goto	l2869
  1495  0546                     u3250:	
  1496  0546                     l2875:	
  1497                           
  1498                           ;alarm.c: 387:                     snz_state += 1 << alarm_no;
  1499  0546  3001               	movlw	1
  1500  0547  1283               	bcf	3,5	;RP0=0, select bank0
  1501  0548  1303               	bcf	3,6	;RP1=0, select bank0
  1502  0549  00B4               	movwf	??_main
  1503  054A  0A5D               	incf	_alarm_no,w
  1504  054B  2D4E               	goto	u3264
  1505  054C                     u3265:	
  1506  054C  1003               	clrc
  1507  054D  0DB4               	rlf	??_main,f
  1508  054E                     u3264:	
  1509  054E  3EFF               	addlw	-1
  1510  054F  1D03               	skipz
  1511  0550  2D4C               	goto	u3265
  1512  0551  0834               	movf	??_main,w
  1513  0552  00B5               	movwf	??_main+1
  1514  0553  0835               	movf	??_main+1,w
  1515  0554  07D8               	addwf	_snz_state,f
  1516  0555                     l2877:	
  1517                           
  1518                           ;alarm.c: 388:                     snz[alarm_no] = time_sum + 5;
  1519  0555  0845               	movf	main@time_sum,w
  1520  0556  3E05               	addlw	5
  1521  0557  00B4               	movwf	??_main
  1522  0558  0846               	movf	main@time_sum+1,w
  1523  0559  1803               	skipnc
  1524  055A  3E01               	addlw	1
  1525  055B  3E00               	addlw	0
  1526  055C  00B5               	movwf	??_main+1
  1527  055D  085D               	movf	_alarm_no,w
  1528  055E  00B6               	movwf	??_main+2
  1529  055F  0736               	addwf	??_main+2,w
  1530  0560  3E47               	addlw	(low (_snz| 0))& (0+255)
  1531  0561  0084               	movwf	4
  1532  0562  0834               	movf	??_main,w
  1533  0563  1383               	bcf	3,7	;select IRP bank0
  1534  0564  0080               	movwf	0
  1535  0565  0A84               	incf	4,f
  1536  0566  0835               	movf	??_main+1,w
  1537  0567  0080               	movwf	0
  1538                           
  1539                           ;alarm.c: 389:                 }
  1540  0568  2DA6               	goto	l2891
  1541  0569                     l2879:	
  1542                           
  1543                           ;alarm.c: 396:                     if(snz[alarm_no] < alarms[alarm_no] + 10){
  1544  0569  085D               	movf	_alarm_no,w
  1545  056A  00B4               	movwf	??_main
  1546  056B  0734               	addwf	??_main,w
  1547  056C  3E4F               	addlw	(low (_alarms| 0))& (0+255)
  1548  056D  0084               	movwf	4
  1549  056E  1383               	bcf	3,7	;select IRP bank0
  1550  056F  0800               	movf	0,w
  1551  0570  00B5               	movwf	??_main+1
  1552  0571  0A84               	incf	4,f
  1553  0572  0800               	movf	0,w
  1554  0573  00B6               	movwf	??_main+2
  1555  0574  0835               	movf	??_main+1,w
  1556  0575  3E0A               	addlw	10
  1557  0576  00B7               	movwf	??_main+3
  1558  0577  0836               	movf	??_main+2,w
  1559  0578  1803               	skipnc
  1560  0579  3E01               	addlw	1
  1561  057A  3E00               	addlw	0
  1562  057B  00B8               	movwf	??_main+4
  1563  057C  085D               	movf	_alarm_no,w
  1564  057D  00B9               	movwf	??_main+5
  1565  057E  0739               	addwf	??_main+5,w
  1566  057F  3E47               	addlw	(low (_snz| 0))& (0+255)
  1567  0580  0084               	movwf	4
  1568  0581  0800               	movf	0,w
  1569  0582  00BA               	movwf	??_main+6
  1570  0583  0A84               	incf	4,f
  1571  0584  0800               	movf	0,w
  1572  0585  00BB               	movwf	??_main+7
  1573  0586  083B               	movf	??_main+7,w
  1574  0587  3A80               	xorlw	128
  1575  0588  00BC               	movwf	??_main+8
  1576  0589  0838               	movf	??_main+4,w
  1577  058A  3A80               	xorlw	128
  1578  058B  023C               	subwf	??_main+8,w
  1579  058C  1D03               	skipz
  1580  058D  2D90               	goto	u3275
  1581  058E  0837               	movf	??_main+3,w
  1582  058F  023A               	subwf	??_main+6,w
  1583  0590                     u3275:	
  1584  0590  1803               	skipnc
  1585  0591  2D93               	goto	u3271
  1586  0592  2D94               	goto	u3270
  1587  0593                     u3271:	
  1588  0593  2D95               	goto	l2885
  1589  0594                     u3270:	
  1590  0594  2D46               	goto	l2875
  1591  0595                     l2885:	
  1592  0595  1283               	bcf	3,5	;RP0=0, select bank0
  1593  0596  1303               	bcf	3,6	;RP1=0, select bank0
  1594  0597  085D               	movf	_alarm_no,w
  1595  0598  00B4               	movwf	??_main
  1596  0599  0734               	addwf	??_main,w
  1597  059A  3E47               	addlw	(low (_snz| 0))& (0+255)
  1598  059B  0084               	movwf	4
  1599  059C  1383               	bcf	3,7	;select IRP bank0
  1600  059D  0180               	clrf	0
  1601  059E  0A84               	incf	4,f
  1602  059F  0180               	clrf	0
  1603  05A0  2DA6               	goto	l2891
  1604  05A1                     l2887:	
  1605                           
  1606                           ;alarm.c: 404:         }
  1607  05A1  3001               	movlw	1
  1608  05A2  00B4               	movwf	??_main
  1609  05A3  0834               	movf	??_main,w
  1610  05A4  07DD               	addwf	_alarm_no,f
  1611  05A5  2B69               	goto	l2737
  1612  05A6                     l2891:	
  1613                           
  1614                           ;alarm.c: 405:         real_time_counter();
  1615  05A6  120A  158A  2443  120A  118A  	fcall	_real_time_counter
  1616  05AB                     l2893:	
  1617                           
  1618                           ;alarm.c: 406:         alarm_no = pre_al_no;
  1619  05AB  1283               	bcf	3,5	;RP0=0, select bank0
  1620  05AC  1303               	bcf	3,6	;RP1=0, select bank0
  1621  05AD  083D               	movf	main@pre_al_no,w
  1622  05AE  00B4               	movwf	??_main
  1623  05AF  0834               	movf	??_main,w
  1624  05B0  00DD               	movwf	_alarm_no
  1625  05B1                     l2895:	
  1626                           
  1627                           ;alarm.c: 410:         if(RC1){
  1628  05B1  1C87               	btfss	7,1	;volatile
  1629  05B2  2DB4               	goto	u3281
  1630  05B3  2DB5               	goto	u3280
  1631  05B4                     u3281:	
  1632  05B4  2DDE               	goto	l379
  1633  05B5                     u3280:	
  1634  05B5                     l2897:	
  1635                           
  1636                           ;alarm.c: 411:             real_time_counter();
  1637  05B5  120A  158A  2443  120A  118A  	fcall	_real_time_counter
  1638  05BA                     l2899:	
  1639                           
  1640                           ;alarm.c: 412:             time[0] = hr; time[1] = min;
  1641  05BA  1283               	bcf	3,5	;RP0=0, select bank0
  1642  05BB  1303               	bcf	3,6	;RP1=0, select bank0
  1643  05BC  085C               	movf	_hr,w
  1644  05BD  00B4               	movwf	??_main
  1645  05BE  0834               	movf	??_main,w
  1646  05BF  00E0               	movwf	_time
  1647  05C0                     l2901:	
  1648  05C0  085B               	movf	_min,w
  1649  05C1  00B4               	movwf	??_main
  1650  05C2  0834               	movf	??_main,w
  1651  05C3  00E1               	movwf	_time+1
  1652  05C4                     l2903:	
  1653                           
  1654                           ;alarm.c: 413:             if(set_time(time, 0)){
  1655  05C4  01A8               	clrf	set_time@i
  1656  05C5  3060               	movlw	(low (_time| 0))& (0+255)
  1657  05C6  120A  158A  2501  120A  118A  	fcall	_set_time
  1658  05CB  3A00               	xorlw	0
  1659  05CC  1903               	skipnz
  1660  05CD  2DCF               	goto	u3291
  1661  05CE  2DD0               	goto	u3290
  1662  05CF                     u3291:	
  1663  05CF  2B37               	goto	l2729
  1664  05D0                     u3290:	
  1665  05D0                     l2905:	
  1666                           
  1667                           ;alarm.c: 414:                 TMR1ON = 0;
  1668  05D0  1283               	bcf	3,5	;RP0=0, select bank0
  1669  05D1  1303               	bcf	3,6	;RP1=0, select bank0
  1670  05D2  1010               	bcf	16,0	;volatile
  1671  05D3                     l2907:	
  1672                           
  1673                           ;alarm.c: 415:                 hr = time[0];
  1674  05D3  0860               	movf	_time,w
  1675  05D4  00B4               	movwf	??_main
  1676  05D5  0834               	movf	??_main,w
  1677  05D6  00DC               	movwf	_hr
  1678                           
  1679                           ;alarm.c: 416:                 min = time[1];
  1680  05D7  0861               	movf	_time+1,w
  1681  05D8  00B4               	movwf	??_main
  1682  05D9  0834               	movf	??_main,w
  1683  05DA  00DB               	movwf	_min
  1684  05DB                     l2909:	
  1685                           
  1686                           ;alarm.c: 417:                 TMR1 = 0; TMR1ON = 1;
  1687  05DB  018E               	clrf	14	;volatile
  1688  05DC  018F               	clrf	15	;volatile
  1689  05DD  2B36               	goto	l2727
  1690  05DE                     l379:	
  1691                           ;alarm.c: 421:         else if(RC0){
  1692                           
  1693  05DE  1C07               	btfss	7,0	;volatile
  1694  05DF  2DE1               	goto	u3301
  1695  05E0  2DE2               	goto	u3300
  1696  05E1                     u3301:	
  1697  05E1  2B37               	goto	l2729
  1698  05E2                     u3300:	
  1699  05E2  2DF2               	goto	l2919
  1700  05E3                     l2915:	
  1701                           
  1702                           ;alarm.c: 423:                 disp(hr, min);
  1703  05E3  085B               	movf	_min,w
  1704  05E4  00B4               	movwf	??_main
  1705  05E5  0834               	movf	??_main,w
  1706  05E6  00FD               	movwf	disp@_2
  1707  05E7  085C               	movf	_hr,w
  1708  05E8  120A  118A  20C6  120A  118A  	fcall	_disp
  1709  05ED                     l2917:	
  1710                           
  1711                           ;alarm.c: 424:                 real_time_counter();
  1712  05ED  120A  158A  2443  120A  118A  	fcall	_real_time_counter
  1713  05F2                     l2919:	
  1714                           
  1715                           ;alarm.c: 422:             while(RC0){
  1716  05F2  1283               	bcf	3,5	;RP0=0, select bank0
  1717  05F3  1303               	bcf	3,6	;RP1=0, select bank0
  1718  05F4  1807               	btfsc	7,0	;volatile
  1719  05F5  2DF7               	goto	u3311
  1720  05F6  2DF8               	goto	u3310
  1721  05F7                     u3311:	
  1722  05F7  2DE3               	goto	l2915
  1723  05F8                     u3310:	
  1724  05F8                     l2921:	
  1725                           
  1726                           ;alarm.c: 426:             real_time_counter();
  1727  05F8  120A  158A  2443  120A  118A  	fcall	_real_time_counter
  1728  05FD                     l2923:	
  1729                           
  1730                           ;alarm.c: 428:             char pre_al_state = al_state;
  1731  05FD  1283               	bcf	3,5	;RP0=0, select bank0
  1732  05FE  1303               	bcf	3,6	;RP1=0, select bank0
  1733  05FF  0859               	movf	_al_state,w
  1734  0600  00B4               	movwf	??_main
  1735  0601  0834               	movf	??_main,w
  1736  0602  00BE               	movwf	main@pre_al_state
  1737  0603                     l2925:	
  1738                           
  1739                           ;alarm.c: 429:             disp_alarm();
  1740  0603  120A  158A  2320  120A  118A  	fcall	_disp_alarm
  1741  0608                     l2927:	
  1742                           
  1743                           ;alarm.c: 431:             alarm_h = alarms[alarm_no] / 60;
  1744  0608  303C               	movlw	60
  1745  0609  00F0               	movwf	___awdiv@divisor
  1746  060A  3000               	movlw	0
  1747  060B  00F1               	movwf	___awdiv@divisor+1
  1748  060C  1283               	bcf	3,5	;RP0=0, select bank0
  1749  060D  1303               	bcf	3,6	;RP1=0, select bank0
  1750  060E  085D               	movf	_alarm_no,w
  1751  060F  00B4               	movwf	??_main
  1752  0610  0734               	addwf	??_main,w
  1753  0611  3E4F               	addlw	(low (_alarms| 0))& (0+255)
  1754  0612  0084               	movwf	4
  1755  0613  1383               	bcf	3,7	;select IRP bank0
  1756  0614  0800               	movf	0,w
  1757  0615  00F2               	movwf	___awdiv@dividend
  1758  0616  0A84               	incf	4,f
  1759  0617  0800               	movf	0,w
  1760  0618  00F3               	movwf	___awdiv@dividend+1
  1761  0619  120A  118A  205F  120A  118A  	fcall	___awdiv
  1762  061E  0870               	movf	?___awdiv,w
  1763  061F  1283               	bcf	3,5	;RP0=0, select bank0
  1764  0620  1303               	bcf	3,6	;RP1=0, select bank0
  1765  0621  00B5               	movwf	??_main+1
  1766  0622  0835               	movf	??_main+1,w
  1767  0623  00DF               	movwf	_alarm_h
  1768  0624                     l2929:	
  1769                           
  1770                           ;alarm.c: 432:             alarm_m = alarms[alarm_no] % 60;
  1771  0624  303C               	movlw	60
  1772  0625  00F0               	movwf	___awmod@divisor
  1773  0626  3000               	movlw	0
  1774  0627  00F1               	movwf	___awmod@divisor+1
  1775  0628  085D               	movf	_alarm_no,w
  1776  0629  00B4               	movwf	??_main
  1777  062A  0734               	addwf	??_main,w
  1778  062B  3E4F               	addlw	(low (_alarms| 0))& (0+255)
  1779  062C  0084               	movwf	4
  1780  062D  1383               	bcf	3,7	;select IRP bank0
  1781  062E  0800               	movf	0,w
  1782  062F  00F2               	movwf	___awmod@dividend
  1783  0630  0A84               	incf	4,f
  1784  0631  0800               	movf	0,w
  1785  0632  00F3               	movwf	___awmod@dividend+1
  1786  0633  120A  118A  2006  120A  118A  	fcall	___awmod
  1787  0638  0870               	movf	?___awmod,w
  1788  0639  1283               	bcf	3,5	;RP0=0, select bank0
  1789  063A  1303               	bcf	3,6	;RP1=0, select bank0
  1790  063B  00B5               	movwf	??_main+1
  1791  063C  0835               	movf	??_main+1,w
  1792  063D  00DE               	movwf	_alarm_m
  1793  063E                     l2931:	
  1794                           
  1795                           ;alarm.c: 435:                 real_time_counter();
  1796  063E  120A  158A  2443  120A  118A  	fcall	_real_time_counter
  1797  0643                     l2933:	
  1798                           
  1799                           ;alarm.c: 436:                 disp(alarm_h, alarm_m);
  1800  0643  1283               	bcf	3,5	;RP0=0, select bank0
  1801  0644  1303               	bcf	3,6	;RP1=0, select bank0
  1802  0645  085E               	movf	_alarm_m,w
  1803  0646  00B4               	movwf	??_main
  1804  0647  0834               	movf	??_main,w
  1805  0648  00FD               	movwf	disp@_2
  1806  0649  085F               	movf	_alarm_h,w
  1807  064A  120A  118A  20C6  120A  118A  	fcall	_disp
  1808  064F                     l2935:	
  1809                           
  1810                           ;alarm.c: 438:                 if(RC2){
  1811  064F  1283               	bcf	3,5	;RP0=0, select bank0
  1812  0650  1303               	bcf	3,6	;RP1=0, select bank0
  1813  0651  1D07               	btfss	7,2	;volatile
  1814  0652  2E54               	goto	u3321
  1815  0653  2E55               	goto	u3320
  1816  0654                     u3321:	
  1817  0654  2E78               	goto	l387
  1818  0655                     u3320:	
  1819  0655  2E65               	goto	l2943
  1820  0656                     l2939:	
  1821                           
  1822                           ;alarm.c: 440:                         disp(alarm_h, alarm_m);
  1823  0656  085E               	movf	_alarm_m,w
  1824  0657  00B4               	movwf	??_main
  1825  0658  0834               	movf	??_main,w
  1826  0659  00FD               	movwf	disp@_2
  1827  065A  085F               	movf	_alarm_h,w
  1828  065B  120A  118A  20C6  120A  118A  	fcall	_disp
  1829  0660                     l2941:	
  1830                           
  1831                           ;alarm.c: 441:                         real_time_counter();
  1832  0660  120A  158A  2443  120A  118A  	fcall	_real_time_counter
  1833  0665                     l2943:	
  1834                           
  1835                           ;alarm.c: 439:                     while(RC2){
  1836  0665  1283               	bcf	3,5	;RP0=0, select bank0
  1837  0666  1303               	bcf	3,6	;RP1=0, select bank0
  1838  0667  1907               	btfsc	7,2	;volatile
  1839  0668  2E6A               	goto	u3331
  1840  0669  2E6B               	goto	u3330
  1841  066A                     u3331:	
  1842  066A  2E56               	goto	l2939
  1843  066B                     u3330:	
  1844  066B                     l2945:	
  1845                           
  1846                           ;alarm.c: 443:                     if(alarm_no < 3) alarm_no++;
  1847  066B  3003               	movlw	3
  1848  066C  025D               	subwf	_alarm_no,w
  1849  066D  1803               	skipnc
  1850  066E  2E70               	goto	u3341
  1851  066F  2E71               	goto	u3340
  1852  0670                     u3341:	
  1853  0670  2E76               	goto	l2949
  1854  0671                     u3340:	
  1855  0671                     l2947:	
  1856  0671  3001               	movlw	1
  1857  0672  00B4               	movwf	??_main
  1858  0673  0834               	movf	??_main,w
  1859  0674  07DD               	addwf	_alarm_no,f
  1860  0675  2E03               	goto	l2925
  1861  0676                     l2949:	
  1862  0676  01DD               	clrf	_alarm_no
  1863  0677  2E03               	goto	l2925
  1864  0678                     l387:	
  1865                           ;alarm.c: 450:                 else if(RC3){
  1866                           
  1867  0678  1D87               	btfss	7,3	;volatile
  1868  0679  2E7B               	goto	u3351
  1869  067A  2E7C               	goto	u3350
  1870  067B                     u3351:	
  1871  067B  2E9F               	goto	l394
  1872  067C                     u3350:	
  1873  067C  2E8C               	goto	l2963
  1874  067D                     l2959:	
  1875                           
  1876                           ;alarm.c: 452:                         disp(alarm_h, alarm_m);
  1877  067D  085E               	movf	_alarm_m,w
  1878  067E  00B4               	movwf	??_main
  1879  067F  0834               	movf	??_main,w
  1880  0680  00FD               	movwf	disp@_2
  1881  0681  085F               	movf	_alarm_h,w
  1882  0682  120A  118A  20C6  120A  118A  	fcall	_disp
  1883  0687                     l2961:	
  1884                           
  1885                           ;alarm.c: 453:                         real_time_counter();
  1886  0687  120A  158A  2443  120A  118A  	fcall	_real_time_counter
  1887  068C                     l2963:	
  1888                           
  1889                           ;alarm.c: 451:                     while(RC3){
  1890  068C  1283               	bcf	3,5	;RP0=0, select bank0
  1891  068D  1303               	bcf	3,6	;RP1=0, select bank0
  1892  068E  1987               	btfsc	7,3	;volatile
  1893  068F  2E91               	goto	u3361
  1894  0690  2E92               	goto	u3360
  1895  0691                     u3361:	
  1896  0691  2E7D               	goto	l2959
  1897  0692                     u3360:	
  1898  0692                     l2965:	
  1899                           
  1900                           ;alarm.c: 455:                     if(alarm_no > 0) alarm_no--;
  1901  0692  085D               	movf	_alarm_no,w
  1902  0693  1903               	btfsc	3,2
  1903  0694  2E96               	goto	u3371
  1904  0695  2E97               	goto	u3370
  1905  0696                     u3371:	
  1906  0696  2E9A               	goto	l2969
  1907  0697                     u3370:	
  1908  0697                     l2967:	
  1909  0697  3001               	movlw	1
  1910  0698  02DD               	subwf	_alarm_no,f
  1911  0699  2E03               	goto	l2925
  1912  069A                     l2969:	
  1913  069A  3003               	movlw	3
  1914  069B  00B4               	movwf	??_main
  1915  069C  0834               	movf	??_main,w
  1916  069D  00DD               	movwf	_alarm_no
  1917  069E  2E03               	goto	l2925
  1918  069F                     l394:	
  1919                           ;alarm.c: 462:                 else if(RC1){
  1920                           
  1921  069F  1C87               	btfss	7,1	;volatile
  1922  06A0  2EA2               	goto	u3381
  1923  06A1  2EA3               	goto	u3380
  1924  06A2                     u3381:	
  1925  06A2  2FB2               	goto	l401
  1926  06A3                     u3380:	
  1927  06A3                     l2977:	
  1928                           
  1929                           ;alarm.c: 463:                     for(char j = 0; j < 25 && RC1; j++){
  1930  06A3  01C3               	clrf	main@j_243
  1931  06A4  2EBA               	goto	l2985
  1932  06A5                     l2979:	
  1933                           
  1934                           ;alarm.c: 464:                         disp(alarm_h, alarm_m);
  1935  06A5  085E               	movf	_alarm_m,w
  1936  06A6  00B4               	movwf	??_main
  1937  06A7  0834               	movf	??_main,w
  1938  06A8  00FD               	movwf	disp@_2
  1939  06A9  085F               	movf	_alarm_h,w
  1940  06AA  120A  118A  20C6  120A  118A  	fcall	_disp
  1941  06AF                     l2981:	
  1942                           
  1943                           ;alarm.c: 465:                         real_time_counter();
  1944  06AF  120A  158A  2443  120A  118A  	fcall	_real_time_counter
  1945  06B4                     l2983:	
  1946                           
  1947                           ;alarm.c: 466:                     }
  1948  06B4  3001               	movlw	1
  1949  06B5  1283               	bcf	3,5	;RP0=0, select bank0
  1950  06B6  1303               	bcf	3,6	;RP1=0, select bank0
  1951  06B7  00B4               	movwf	??_main
  1952  06B8  0834               	movf	??_main,w
  1953  06B9  07C3               	addwf	main@j_243,f
  1954  06BA                     l2985:	
  1955  06BA  3019               	movlw	25
  1956  06BB  0243               	subwf	main@j_243,w
  1957  06BC  1803               	skipnc
  1958  06BD  2EBF               	goto	u3391
  1959  06BE  2EC0               	goto	u3390
  1960  06BF                     u3391:	
  1961  06BF  2EC4               	goto	l406
  1962  06C0                     u3390:	
  1963  06C0                     l2987:	
  1964  06C0  1887               	btfsc	7,1	;volatile
  1965  06C1  2EC3               	goto	u3401
  1966  06C2  2EC4               	goto	u3400
  1967  06C3                     u3401:	
  1968  06C3  2EA5               	goto	l2979
  1969  06C4                     u3400:	
  1970  06C4                     l406:	
  1971                           
  1972                           ;alarm.c: 467:                     if(!RC1){
  1973  06C4  1887               	btfsc	7,1	;volatile
  1974  06C5  2EC7               	goto	u3411
  1975  06C6  2EC8               	goto	u3410
  1976  06C7                     u3411:	
  1977  06C7  2F0A               	goto	l3005
  1978  06C8                     u3410:	
  1979  06C8                     l2989:	
  1980                           
  1981                           ;alarm.c: 469:                         if(al_state & (1 << alarm_no)){
  1982  06C8  3001               	movlw	1
  1983  06C9  00B4               	movwf	??_main
  1984  06CA  0A5D               	incf	_alarm_no,w
  1985  06CB  2ECE               	goto	u3424
  1986  06CC                     u3425:	
  1987  06CC  1003               	clrc
  1988  06CD  0DB4               	rlf	??_main,f
  1989  06CE                     u3424:	
  1990  06CE  3EFF               	addlw	-1
  1991  06CF  1D03               	skipz
  1992  06D0  2ECC               	goto	u3425
  1993  06D1  0834               	movf	??_main,w
  1994  06D2  0559               	andwf	_al_state,w
  1995  06D3  1903               	btfsc	3,2
  1996  06D4  2ED6               	goto	u3431
  1997  06D5  2ED7               	goto	u3430
  1998  06D6                     u3431:	
  1999  06D6  2EEC               	goto	l2995
  2000  06D7                     u3430:	
  2001  06D7                     l2991:	
  2002                           
  2003                           ;alarm.c: 470:                             al_state -= 1 << alarm_no;
  2004  06D7  3001               	movlw	1
  2005  06D8  00B4               	movwf	??_main
  2006  06D9  0A5D               	incf	_alarm_no,w
  2007  06DA  2EDD               	goto	u3444
  2008  06DB                     u3445:	
  2009  06DB  1003               	clrc
  2010  06DC  0DB4               	rlf	??_main,f
  2011  06DD                     u3444:	
  2012  06DD  3EFF               	addlw	-1
  2013  06DE  1D03               	skipz
  2014  06DF  2EDB               	goto	u3445
  2015  06E0  0834               	movf	??_main,w
  2016  06E1  02D9               	subwf	_al_state,f
  2017  06E2                     l2993:	
  2018                           
  2019                           ;alarm.c: 471:                             snz[alarm_no] = 0;
  2020  06E2  085D               	movf	_alarm_no,w
  2021  06E3  00B4               	movwf	??_main
  2022  06E4  0734               	addwf	??_main,w
  2023  06E5  3E47               	addlw	(low (_snz| 0))& (0+255)
  2024  06E6  0084               	movwf	4
  2025  06E7  1383               	bcf	3,7	;select IRP bank0
  2026  06E8  0180               	clrf	0
  2027  06E9  0A84               	incf	4,f
  2028  06EA  0180               	clrf	0
  2029                           
  2030                           ;alarm.c: 472:                         }
  2031  06EB  2EF9               	goto	l2997
  2032  06EC                     l2995:	
  2033  06EC  3001               	movlw	1
  2034  06ED  00B4               	movwf	??_main
  2035  06EE  0A5D               	incf	_alarm_no,w
  2036  06EF  2EF2               	goto	u3454
  2037  06F0                     u3455:	
  2038  06F0  1003               	clrc
  2039  06F1  0DB4               	rlf	??_main,f
  2040  06F2                     u3454:	
  2041  06F2  3EFF               	addlw	-1
  2042  06F3  1D03               	skipz
  2043  06F4  2EF0               	goto	u3455
  2044  06F5  0834               	movf	??_main,w
  2045  06F6  00B5               	movwf	??_main+1
  2046  06F7  0835               	movf	??_main+1,w
  2047  06F8  07D9               	addwf	_al_state,f
  2048  06F9                     l2997:	
  2049                           
  2050                           ;alarm.c: 474:                         real_time_counter();
  2051  06F9  120A  158A  2443  120A  118A  	fcall	_real_time_counter
  2052  06FE                     l2999:	
  2053                           
  2054                           ;alarm.c: 475:                         RC4 = 1;
  2055  06FE  1283               	bcf	3,5	;RP0=0, select bank0
  2056  06FF  1303               	bcf	3,6	;RP1=0, select bank0
  2057  0700  1607               	bsf	7,4	;volatile
  2058  0701                     l3001:	
  2059                           
  2060                           ;alarm.c: 476:                         disp_alarm_state();
  2061  0701  120A  118A  2140  120A  118A  	fcall	_disp_alarm_state
  2062  0706                     l3003:	
  2063                           
  2064                           ;alarm.c: 477:                         RC4 = 0;
  2065  0706  1283               	bcf	3,5	;RP0=0, select bank0
  2066  0707  1303               	bcf	3,6	;RP1=0, select bank0
  2067  0708  1207               	bcf	7,4	;volatile
  2068                           
  2069                           ;alarm.c: 478:                     }
  2070  0709  2E3E               	goto	l2931
  2071  070A                     l3005:	
  2072                           
  2073                           ;alarm.c: 482:                         real_time_counter();
  2074  070A  120A  158A  2443  120A  118A  	fcall	_real_time_counter
  2075  070F                     l3007:	
  2076                           
  2077                           ;alarm.c: 483:                         alarm[0] = alarm_h; alarm[1] = alarm_m;
  2078  070F  1283               	bcf	3,5	;RP0=0, select bank0
  2079  0710  1303               	bcf	3,6	;RP1=0, select bank0
  2080  0711  085F               	movf	_alarm_h,w
  2081  0712  00B4               	movwf	??_main
  2082  0713  0834               	movf	??_main,w
  2083  0714  00E2               	movwf	_alarm
  2084  0715                     l3009:	
  2085  0715  085E               	movf	_alarm_m,w
  2086  0716  00B4               	movwf	??_main
  2087  0717  0834               	movf	??_main,w
  2088  0718  00E3               	movwf	_alarm+1
  2089  0719                     l3011:	
  2090                           
  2091                           ;alarm.c: 484:                         if(set_time(alarm, 0)){
  2092  0719  01A8               	clrf	set_time@i
  2093  071A  3062               	movlw	(low (_alarm| 0))& (0+255)
  2094  071B  120A  158A  2501  120A  118A  	fcall	_set_time
  2095  0720  3A00               	xorlw	0
  2096  0721  1903               	skipnz
  2097  0722  2F24               	goto	u3461
  2098  0723  2F25               	goto	u3460
  2099  0724                     u3461:	
  2100  0724  2E3E               	goto	l2931
  2101  0725                     u3460:	
  2102  0725                     l3013:	
  2103                           
  2104                           ;alarm.c: 485:                             real_time_counter();
  2105  0725  120A  158A  2443  120A  118A  	fcall	_real_time_counter
  2106  072A                     l3015:	
  2107                           
  2108                           ;alarm.c: 487:                             if(alarm[0] != alarm_h || alarm[1] != alarm_m
      +                          ){
  2109  072A  1283               	bcf	3,5	;RP0=0, select bank0
  2110  072B  1303               	bcf	3,6	;RP1=0, select bank0
  2111  072C  0862               	movf	_alarm,w
  2112  072D  065F               	xorwf	_alarm_h,w
  2113  072E  1D03               	skipz
  2114  072F  2F31               	goto	u3471
  2115  0730  2F32               	goto	u3470
  2116  0731                     u3471:	
  2117  0731  2F38               	goto	l3019
  2118  0732                     u3470:	
  2119  0732                     l3017:	
  2120  0732  0863               	movf	_alarm+1,w
  2121  0733  065E               	xorwf	_alarm_m,w
  2122  0734  1903               	skipnz
  2123  0735  2F37               	goto	u3481
  2124  0736  2F38               	goto	u3480
  2125  0737                     u3481:	
  2126  0737  2FAC               	goto	l3037
  2127  0738                     u3480:	
  2128  0738                     l3019:	
  2129                           
  2130                           ;alarm.c: 489:                                 if(!(al_state & (1 << alarm_no))) al_stat
      +                          e += 1 << alarm_no;
  2131  0738  3001               	movlw	1
  2132  0739  00B4               	movwf	??_main
  2133  073A  0A5D               	incf	_alarm_no,w
  2134  073B  2F3E               	goto	u3494
  2135  073C                     u3495:	
  2136  073C  1003               	clrc
  2137  073D  0DB4               	rlf	??_main,f
  2138  073E                     u3494:	
  2139  073E  3EFF               	addlw	-1
  2140  073F  1D03               	skipz
  2141  0740  2F3C               	goto	u3495
  2142  0741  0834               	movf	??_main,w
  2143  0742  0559               	andwf	_al_state,w
  2144  0743  1D03               	btfss	3,2
  2145  0744  2F46               	goto	u3501
  2146  0745  2F47               	goto	u3500
  2147  0746                     u3501:	
  2148  0746  2F54               	goto	l3023
  2149  0747                     u3500:	
  2150  0747                     l3021:	
  2151  0747  3001               	movlw	1
  2152  0748  00B4               	movwf	??_main
  2153  0749  0A5D               	incf	_alarm_no,w
  2154  074A  2F4D               	goto	u3514
  2155  074B                     u3515:	
  2156  074B  1003               	clrc
  2157  074C  0DB4               	rlf	??_main,f
  2158  074D                     u3514:	
  2159  074D  3EFF               	addlw	-1
  2160  074E  1D03               	skipz
  2161  074F  2F4B               	goto	u3515
  2162  0750  0834               	movf	??_main,w
  2163  0751  00B5               	movwf	??_main+1
  2164  0752  0835               	movf	??_main+1,w
  2165  0753  07D9               	addwf	_al_state,f
  2166  0754                     l3023:	
  2167                           
  2168                           ;alarm.c: 490:                                 real_time_counter();
  2169  0754  120A  158A  2443  120A  118A  	fcall	_real_time_counter
  2170  0759                     l3025:	
  2171                           
  2172                           ;alarm.c: 491:                                 alarm_h = alarm[0]; alarm_m = alarm[1];
  2173  0759  1283               	bcf	3,5	;RP0=0, select bank0
  2174  075A  1303               	bcf	3,6	;RP1=0, select bank0
  2175  075B  0862               	movf	_alarm,w
  2176  075C  00B4               	movwf	??_main
  2177  075D  0834               	movf	??_main,w
  2178  075E  00DF               	movwf	_alarm_h
  2179  075F                     l3027:	
  2180  075F  0863               	movf	_alarm+1,w
  2181  0760  00B4               	movwf	??_main
  2182  0761  0834               	movf	??_main,w
  2183  0762  00DE               	movwf	_alarm_m
  2184  0763                     l3029:	
  2185                           
  2186                           ;alarm.c: 492:                                 alarms[alarm_no] = alarm_h*60 + alarm_m;
  2187  0763  085F               	movf	_alarm_h,w
  2188  0764  00B4               	movwf	??_main
  2189  0765  01B5               	clrf	??_main+1
  2190  0766  0834               	movf	??_main,w
  2191  0767  00F0               	movwf	___wmul@multiplier
  2192  0768  0835               	movf	??_main+1,w
  2193  0769  00F1               	movwf	___wmul@multiplier+1
  2194  076A  303C               	movlw	60
  2195  076B  00F2               	movwf	___wmul@multiplicand
  2196  076C  3000               	movlw	0
  2197  076D  00F3               	movwf	___wmul@multiplicand+1
  2198  076E  120A  158A  2388  120A  118A  	fcall	___wmul
  2199  0773  1283               	bcf	3,5	;RP0=0, select bank0
  2200  0774  1303               	bcf	3,6	;RP1=0, select bank0
  2201  0775  085E               	movf	_alarm_m,w
  2202  0776  0770               	addwf	?___wmul,w
  2203  0777  00B6               	movwf	??_main+2
  2204  0778  3000               	movlw	0
  2205  0779  1803               	skipnc
  2206  077A  3001               	movlw	1
  2207  077B  0771               	addwf	?___wmul+1,w
  2208  077C  00B7               	movwf	??_main+3
  2209  077D  085D               	movf	_alarm_no,w
  2210  077E  00B8               	movwf	??_main+4
  2211  077F  0738               	addwf	??_main+4,w
  2212  0780  3E4F               	addlw	(low (_alarms| 0))& (0+255)
  2213  0781  0084               	movwf	4
  2214  0782  0836               	movf	??_main+2,w
  2215  0783  1383               	bcf	3,7	;select IRP bank0
  2216  0784  0080               	movwf	0
  2217  0785  0A84               	incf	4,f
  2218  0786  0837               	movf	??_main+3,w
  2219  0787  0080               	movwf	0
  2220                           
  2221                           ;alarm.c: 493:                                 snz[alarm_no] = 0;
  2222  0788  085D               	movf	_alarm_no,w
  2223  0789  00B4               	movwf	??_main
  2224  078A  0734               	addwf	??_main,w
  2225  078B  3E47               	addlw	(low (_snz| 0))& (0+255)
  2226  078C  0084               	movwf	4
  2227  078D  0180               	clrf	0
  2228  078E  0A84               	incf	4,f
  2229  078F  0180               	clrf	0
  2230  0790                     l3031:	
  2231                           
  2232                           ;alarm.c: 494:                                 real_time_counter();
  2233  0790  120A  158A  2443  120A  118A  	fcall	_real_time_counter
  2234  0795                     l3033:	
  2235                           
  2236                           ;alarm.c: 496:                                 cont_data_write(alarm_no*2, alarm, 0x7F);
  2237  0795  3062               	movlw	(low (_alarm| 0))& (0+255)
  2238  0796  1283               	bcf	3,5	;RP0=0, select bank0
  2239  0797  1303               	bcf	3,6	;RP1=0, select bank0
  2240  0798  00B4               	movwf	??_main
  2241  0799  0834               	movf	??_main,w
  2242  079A  00F5               	movwf	cont_data_write@arr
  2243  079B  307F               	movlw	127
  2244  079C  00B5               	movwf	??_main+1
  2245  079D  0835               	movf	??_main+1,w
  2246  079E  00F6               	movwf	cont_data_write@end_char
  2247  079F  085D               	movf	_alarm_no,w
  2248  07A0  00B6               	movwf	??_main+2
  2249  07A1  0736               	addwf	??_main+2,w
  2250  07A2  120A  158A  240D  120A  118A  	fcall	_cont_data_write
  2251  07A7                     l3035:	
  2252                           
  2253                           ;alarm.c: 497:                                 real_time_counter();
  2254  07A7  120A  158A  2443  120A  118A  	fcall	_real_time_counter
  2255  07AC                     l3037:	
  2256                           
  2257                           ;alarm.c: 498:                                 disp_alarm_state();
  2258  07AC  120A  118A  2140  120A  118A  	fcall	_disp_alarm_state
  2259                           
  2260                           ;alarm.c: 499:                             }
  2261  07B1  2E3E               	goto	l2931
  2262  07B2                     l401:	
  2263                           ;alarm.c: 507:                 else if(RC0){
  2264                           
  2265  07B2  1C07               	btfss	7,0	;volatile
  2266  07B3  2FB5               	goto	u3521
  2267  07B4  2FB6               	goto	u3520
  2268  07B5                     u3521:	
  2269  07B5  2FDD               	goto	l400
  2270  07B6                     u3520:	
  2271  07B6  2FC6               	goto	l3047
  2272  07B7                     l3043:	
  2273                           
  2274                           ;alarm.c: 509:                         disp(alarm_h, alarm_m);
  2275  07B7  085E               	movf	_alarm_m,w
  2276  07B8  00B4               	movwf	??_main
  2277  07B9  0834               	movf	??_main,w
  2278  07BA  00FD               	movwf	disp@_2
  2279  07BB  085F               	movf	_alarm_h,w
  2280  07BC  120A  118A  20C6  120A  118A  	fcall	_disp
  2281  07C1                     l3045:	
  2282                           
  2283                           ;alarm.c: 510:                         real_time_counter();
  2284  07C1  120A  158A  2443  120A  118A  	fcall	_real_time_counter
  2285  07C6                     l3047:	
  2286                           
  2287                           ;alarm.c: 508:                     while(RC0){
  2288  07C6  1283               	bcf	3,5	;RP0=0, select bank0
  2289  07C7  1303               	bcf	3,6	;RP1=0, select bank0
  2290  07C8  1807               	btfsc	7,0	;volatile
  2291  07C9  2FCB               	goto	u3531
  2292  07CA  2FCC               	goto	u3530
  2293  07CB                     u3531:	
  2294  07CB  2FB7               	goto	l3043
  2295  07CC                     u3530:	
  2296  07CC                     l3049:	
  2297                           
  2298                           ;alarm.c: 513:                     if(al_state != pre_al_state) data_write(0x08, al_stat
      +                          e);
  2299  07CC  0859               	movf	_al_state,w
  2300  07CD  063E               	xorwf	main@pre_al_state,w
  2301  07CE  1903               	skipnz
  2302  07CF  2FD1               	goto	u3541
  2303  07D0  2FD2               	goto	u3540
  2304  07D1                     u3541:	
  2305  07D1  2B37               	goto	l2729
  2306  07D2                     u3540:	
  2307  07D2                     l3051:	
  2308  07D2  0859               	movf	_al_state,w
  2309  07D3  00B4               	movwf	??_main
  2310  07D4  0834               	movf	??_main,w
  2311  07D5  00F2               	movwf	data_write@data
  2312  07D6  3008               	movlw	8
  2313  07D7  120A  158A  24BD  120A  118A  	fcall	_data_write
  2314  07DC  2B37               	goto	l2729
  2315  07DD                     l400:	
  2316  07DD  2E3E               	goto	l2931
  2317  07DE  120A  118A  2800   	ljmp	start
  2318  07E1                     __end_of_main:	
  2319                           
  2320                           	psect	text1
  2321  0D01                     __ptext1:	
  2322 ;; *************** function _set_time *****************
  2323 ;; Defined at:
  2324 ;;		line 109 in file "alarm.c"
  2325 ;; Parameters:    Size  Location     Type
  2326 ;;  arr             1    wreg     PTR unsigned char 
  2327 ;;		 -> alarm(3), time(2), 
  2328 ;;  i               1    8[BANK0 ] unsigned char 
  2329 ;; Auto vars:     Size  Location     Type
  2330 ;;  arr             1   19[BANK0 ] PTR unsigned char 
  2331 ;;		 -> alarm(3), time(2), 
  2332 ;;  j               1   18[BANK0 ] unsigned char 
  2333 ;;  j               1   16[BANK0 ] unsigned char 
  2334 ;;  j               1   14[BANK0 ] unsigned char 
  2335 ;;  j               1   17[BANK0 ] unsigned char 
  2336 ;;  j               1   15[BANK0 ] unsigned char 
  2337 ;;  k               1   13[BANK0 ] unsigned char 
  2338 ;;  k               1   12[BANK0 ] unsigned char 
  2339 ;;  j               1   11[BANK0 ] unsigned char 
  2340 ;; Return value:  Size  Location     Type
  2341 ;;                  1    wreg      unsigned char 
  2342 ;; Registers used:
  2343 ;;		wreg, fsr0l, fsr0h, status,2, status,0, pclath, cstack
  2344 ;; Tracked objects:
  2345 ;;		On entry : 0/0
  2346 ;;		On exit  : 0/0
  2347 ;;		Unchanged: 0/0
  2348 ;; Data sizes:     COMMON   BANK0   BANK1   BANK3   BANK2
  2349 ;;      Params:         0       1       0       0       0
  2350 ;;      Locals:         0       9       0       0       0
  2351 ;;      Temps:          0       2       0       0       0
  2352 ;;      Totals:         0      12       0       0       0
  2353 ;;Total ram usage:       12 bytes
  2354 ;; Hardware stack levels used:    1
  2355 ;; Hardware stack levels required when called:    4
  2356 ;; This function calls:
  2357 ;;		_buzz
  2358 ;;		_disp
  2359 ;;		_disp_dig
  2360 ;;		_real_time_counter
  2361 ;; This function is called by:
  2362 ;;		_main
  2363 ;;		_clock_init
  2364 ;; This function uses a non-reentrant model
  2365 ;;
  2366                           
  2367                           
  2368                           ;psect for function _set_time
  2369  0D01                     _set_time:	
  2370                           
  2371                           ;incstack = 0
  2372                           ; Regs used in _set_time: [wreg-fsr0h+status,2+status,0+pclath+cstack]
  2373                           ;set_time@arr stored from wreg
  2374  0D01  1283               	bcf	3,5	;RP0=0, select bank0
  2375  0D02  1303               	bcf	3,6	;RP1=0, select bank0
  2376  0D03  00B3               	movwf	set_time@arr
  2377  0D04                     l2401:	
  2378                           
  2379                           ;alarm.c: 110:     RC5 = 0;
  2380  0D04  1287               	bcf	7,5	;volatile
  2381  0D05                     l2403:	
  2382                           
  2383                           ;alarm.c: 111:     for(char j = 0; j < 2 && RC1; j++){
  2384  0D05  01AB               	clrf	set_time@j
  2385  0D06  2D72               	goto	l2433
  2386  0D07                     l2405:	
  2387                           
  2388                           ;alarm.c: 112:         for(char k = 0; k < 40 && RC1; k++){
  2389  0D07  01AC               	clrf	set_time@k
  2390  0D08  2D42               	goto	l2413
  2391  0D09                     l2407:	
  2392                           
  2393                           ;alarm.c: 113:             disp_dig(1, ' ');
  2394  0D09  3020               	movlw	32
  2395  0D0A  00A9               	movwf	??_set_time
  2396  0D0B  0829               	movf	??_set_time,w
  2397  0D0C  00F9               	movwf	disp_dig@dig
  2398  0D0D  3001               	movlw	1
  2399  0D0E  120A  158A  2340  120A  158A  	fcall	_disp_dig
  2400                           
  2401                           ;alarm.c: 114:             disp_dig(2, 5);
  2402  0D13  3005               	movlw	5
  2403  0D14  1283               	bcf	3,5	;RP0=0, select bank0
  2404  0D15  1303               	bcf	3,6	;RP1=0, select bank0
  2405  0D16  00A9               	movwf	??_set_time
  2406  0D17  0829               	movf	??_set_time,w
  2407  0D18  00F9               	movwf	disp_dig@dig
  2408  0D19  3002               	movlw	2
  2409  0D1A  120A  158A  2340  120A  158A  	fcall	_disp_dig
  2410                           
  2411                           ;alarm.c: 115:             disp_dig(3, 'E');
  2412  0D1F  3045               	movlw	69
  2413  0D20  1283               	bcf	3,5	;RP0=0, select bank0
  2414  0D21  1303               	bcf	3,6	;RP1=0, select bank0
  2415  0D22  00A9               	movwf	??_set_time
  2416  0D23  0829               	movf	??_set_time,w
  2417  0D24  00F9               	movwf	disp_dig@dig
  2418  0D25  3003               	movlw	3
  2419  0D26  120A  158A  2340  120A  158A  	fcall	_disp_dig
  2420                           
  2421                           ;alarm.c: 116:             disp_dig(4, 'T');
  2422  0D2B  3054               	movlw	84
  2423  0D2C  1283               	bcf	3,5	;RP0=0, select bank0
  2424  0D2D  1303               	bcf	3,6	;RP1=0, select bank0
  2425  0D2E  00A9               	movwf	??_set_time
  2426  0D2F  0829               	movf	??_set_time,w
  2427  0D30  00F9               	movwf	disp_dig@dig
  2428  0D31  3004               	movlw	4
  2429  0D32  120A  158A  2340  120A  158A  	fcall	_disp_dig
  2430  0D37                     l2409:	
  2431                           
  2432                           ;alarm.c: 117:             real_time_counter();
  2433  0D37  120A  158A  2443  120A  158A  	fcall	_real_time_counter
  2434  0D3C                     l2411:	
  2435                           
  2436                           ;alarm.c: 118:         }
  2437  0D3C  3001               	movlw	1
  2438  0D3D  1283               	bcf	3,5	;RP0=0, select bank0
  2439  0D3E  1303               	bcf	3,6	;RP1=0, select bank0
  2440  0D3F  00A9               	movwf	??_set_time
  2441  0D40  0829               	movf	??_set_time,w
  2442  0D41  07AC               	addwf	set_time@k,f
  2443  0D42                     l2413:	
  2444  0D42  3028               	movlw	40
  2445  0D43  022C               	subwf	set_time@k,w
  2446  0D44  1803               	skipnc
  2447  0D45  2D47               	goto	u2261
  2448  0D46  2D48               	goto	u2260
  2449  0D47                     u2261:	
  2450  0D47  2D4C               	goto	l2417
  2451  0D48                     u2260:	
  2452  0D48                     l2415:	
  2453  0D48  1887               	btfsc	7,1	;volatile
  2454  0D49  2D4B               	goto	u2271
  2455  0D4A  2D4C               	goto	u2270
  2456  0D4B                     u2271:	
  2457  0D4B  2D09               	goto	l2407
  2458  0D4C                     u2270:	
  2459  0D4C                     l2417:	
  2460                           
  2461                           ;alarm.c: 119:         for(char k = 0; k < 10 && RC1; k++){
  2462  0D4C  01AD               	clrf	set_time@k_205
  2463  0D4D  2D64               	goto	l2427
  2464  0D4E                     l2419:	
  2465                           
  2466                           ;alarm.c: 120:             PORTB = 0;
  2467  0D4E  0186               	clrf	6	;volatile
  2468  0D4F                     l2421:	
  2469                           
  2470                           ;alarm.c: 121:             _delay((unsigned long)((20)*(20000000/4000.0)));
  2471  0D4F  3082               	movlw	130
  2472  0D50  1283               	bcf	3,5	;RP0=0, select bank0
  2473  0D51  1303               	bcf	3,6	;RP1=0, select bank0
  2474  0D52  00AA               	movwf	??_set_time+1
  2475  0D53  30DD               	movlw	221
  2476  0D54  00A9               	movwf	??_set_time
  2477  0D55                     u3567:	
  2478  0D55  0BA9               	decfsz	??_set_time,f
  2479  0D56  2D55               	goto	u3567
  2480  0D57  0BAA               	decfsz	??_set_time+1,f
  2481  0D58  2D55               	goto	u3567
  2482  0D59                     l2423:	
  2483                           
  2484                           ;alarm.c: 122:             real_time_counter();
  2485  0D59  120A  158A  2443  120A  158A  	fcall	_real_time_counter
  2486  0D5E                     l2425:	
  2487                           
  2488                           ;alarm.c: 123:         }
  2489  0D5E  3001               	movlw	1
  2490  0D5F  1283               	bcf	3,5	;RP0=0, select bank0
  2491  0D60  1303               	bcf	3,6	;RP1=0, select bank0
  2492  0D61  00A9               	movwf	??_set_time
  2493  0D62  0829               	movf	??_set_time,w
  2494  0D63  07AD               	addwf	set_time@k_205,f
  2495  0D64                     l2427:	
  2496  0D64  300A               	movlw	10
  2497  0D65  022D               	subwf	set_time@k_205,w
  2498  0D66  1803               	skipnc
  2499  0D67  2D69               	goto	u2281
  2500  0D68  2D6A               	goto	u2280
  2501  0D69                     u2281:	
  2502  0D69  2D6E               	goto	l2431
  2503  0D6A                     u2280:	
  2504  0D6A                     l2429:	
  2505  0D6A  1887               	btfsc	7,1	;volatile
  2506  0D6B  2D6D               	goto	u2291
  2507  0D6C  2D6E               	goto	u2290
  2508  0D6D                     u2291:	
  2509  0D6D  2D4E               	goto	l2419
  2510  0D6E                     u2290:	
  2511  0D6E                     l2431:	
  2512                           
  2513                           ;alarm.c: 124:     }
  2514  0D6E  3001               	movlw	1
  2515  0D6F  00A9               	movwf	??_set_time
  2516  0D70  0829               	movf	??_set_time,w
  2517  0D71  07AB               	addwf	set_time@j,f
  2518  0D72                     l2433:	
  2519  0D72  3002               	movlw	2
  2520  0D73  022B               	subwf	set_time@j,w
  2521  0D74  1803               	skipnc
  2522  0D75  2D77               	goto	u2301
  2523  0D76  2D78               	goto	u2300
  2524  0D77                     u2301:	
  2525  0D77  2D7C               	goto	l217
  2526  0D78                     u2300:	
  2527  0D78                     l2435:	
  2528  0D78  1887               	btfsc	7,1	;volatile
  2529  0D79  2D7B               	goto	u2311
  2530  0D7A  2D7C               	goto	u2310
  2531  0D7B                     u2311:	
  2532  0D7B  2D07               	goto	l2405
  2533  0D7C                     u2310:	
  2534  0D7C                     l217:	
  2535                           
  2536                           ;alarm.c: 125:     RC5 = 1;
  2537  0D7C  1687               	bsf	7,5	;volatile
  2538                           
  2539                           ;alarm.c: 129:     if(RC1){
  2540  0D7D  1C87               	btfss	7,1	;volatile
  2541  0D7E  2D80               	goto	u2321
  2542  0D7F  2D81               	goto	u2320
  2543  0D80                     u2321:	
  2544  0D80  2FB3               	goto	l2595
  2545  0D81                     u2320:	
  2546  0D81                     l2437:	
  2547                           
  2548                           ;alarm.c: 130:         buzz(arr[0], arr[1]);
  2549  0D81  0A33               	incf	set_time@arr,w
  2550  0D82  0084               	movwf	4
  2551  0D83  1383               	bcf	3,7	;select IRP bank0
  2552  0D84  0800               	movf	0,w
  2553  0D85  00A9               	movwf	??_set_time
  2554  0D86  0829               	movf	??_set_time,w
  2555  0D87  00A4               	movwf	buzz@t2
  2556  0D88  0833               	movf	set_time@arr,w
  2557  0D89  0084               	movwf	4
  2558  0D8A  0800               	movf	0,w
  2559  0D8B  120A  158A  2364  120A  158A  	fcall	_buzz
  2560                           
  2561                           ;alarm.c: 131:         while(RC1){
  2562  0D90  2DA5               	goto	l2443
  2563  0D91                     l2439:	
  2564                           
  2565                           ;alarm.c: 132:             disp(arr[0], arr[1]);
  2566  0D91  0A33               	incf	set_time@arr,w
  2567  0D92  0084               	movwf	4
  2568  0D93  1383               	bcf	3,7	;select IRP bank0
  2569  0D94  0800               	movf	0,w
  2570  0D95  00A9               	movwf	??_set_time
  2571  0D96  0829               	movf	??_set_time,w
  2572  0D97  00FD               	movwf	disp@_2
  2573  0D98  0833               	movf	set_time@arr,w
  2574  0D99  0084               	movwf	4
  2575  0D9A  0800               	movf	0,w
  2576  0D9B  120A  118A  20C6  120A  158A  	fcall	_disp
  2577  0DA0                     l2441:	
  2578                           
  2579                           ;alarm.c: 133:             real_time_counter();
  2580  0DA0  120A  158A  2443  120A  158A  	fcall	_real_time_counter
  2581  0DA5                     l2443:	
  2582                           
  2583                           ;alarm.c: 131:         while(RC1){
  2584  0DA5  1283               	bcf	3,5	;RP0=0, select bank0
  2585  0DA6  1303               	bcf	3,6	;RP1=0, select bank0
  2586  0DA7  1887               	btfsc	7,1	;volatile
  2587  0DA8  2DAA               	goto	u2331
  2588  0DA9  2DAB               	goto	u2330
  2589  0DAA                     u2331:	
  2590  0DAA  2D91               	goto	l2439
  2591  0DAB                     u2330:	
  2592  0DAB                     l2445:	
  2593                           
  2594                           ;alarm.c: 137:             disp(arr[0], arr[1]);
  2595  0DAB  0A33               	incf	set_time@arr,w
  2596  0DAC  0084               	movwf	4
  2597  0DAD  1383               	bcf	3,7	;select IRP bank0
  2598  0DAE  0800               	movf	0,w
  2599  0DAF  00A9               	movwf	??_set_time
  2600  0DB0  0829               	movf	??_set_time,w
  2601  0DB1  00FD               	movwf	disp@_2
  2602  0DB2  0833               	movf	set_time@arr,w
  2603  0DB3  0084               	movwf	4
  2604  0DB4  0800               	movf	0,w
  2605  0DB5  120A  118A  20C6  120A  158A  	fcall	_disp
  2606  0DBA                     l2447:	
  2607                           
  2608                           ;alarm.c: 138:             real_time_counter();
  2609  0DBA  120A  158A  2443  120A  158A  	fcall	_real_time_counter
  2610  0DBF                     l2449:	
  2611                           
  2612                           ;alarm.c: 139:             if(RC2){
  2613  0DBF  1283               	bcf	3,5	;RP0=0, select bank0
  2614  0DC0  1303               	bcf	3,6	;RP1=0, select bank0
  2615  0DC1  1D07               	btfss	7,2	;volatile
  2616  0DC2  2DC4               	goto	u2341
  2617  0DC3  2DC5               	goto	u2340
  2618  0DC4                     u2341:	
  2619  0DC4  2E7F               	goto	l223
  2620  0DC5                     u2340:	
  2621  0DC5                     l2451:	
  2622                           
  2623                           ;alarm.c: 140:                 arr[i]++;
  2624  0DC5  3001               	movlw	1
  2625  0DC6  00A9               	movwf	??_set_time
  2626  0DC7  0828               	movf	set_time@i,w
  2627  0DC8  0733               	addwf	set_time@arr,w
  2628  0DC9  00AA               	movwf	??_set_time+1
  2629  0DCA  082A               	movf	??_set_time+1,w
  2630  0DCB  0084               	movwf	4
  2631  0DCC  0829               	movf	??_set_time,w
  2632  0DCD  1383               	bcf	3,7	;select IRP bank0
  2633  0DCE  0780               	addwf	0,f
  2634  0DCF                     l2453:	
  2635                           
  2636                           ;alarm.c: 141:                 if(i && (arr[i] == 60)) arr[i] = 0;
  2637  0DCF  0828               	movf	set_time@i,w
  2638  0DD0  1903               	btfsc	3,2
  2639  0DD1  2DD3               	goto	u2351
  2640  0DD2  2DD4               	goto	u2350
  2641  0DD3                     u2351:	
  2642  0DD3  2DE5               	goto	l2459
  2643  0DD4                     u2350:	
  2644  0DD4                     l2455:	
  2645  0DD4  0828               	movf	set_time@i,w
  2646  0DD5  0733               	addwf	set_time@arr,w
  2647  0DD6  00A9               	movwf	??_set_time
  2648  0DD7  0829               	movf	??_set_time,w
  2649  0DD8  0084               	movwf	4
  2650  0DD9  303C               	movlw	60
  2651  0DDA  0600               	xorwf	0,w
  2652  0DDB  1D03               	btfss	3,2
  2653  0DDC  2DDE               	goto	u2361
  2654  0DDD  2DDF               	goto	u2360
  2655  0DDE                     u2361:	
  2656  0DDE  2DE5               	goto	l2459
  2657  0DDF                     u2360:	
  2658  0DDF                     l2457:	
  2659  0DDF  0828               	movf	set_time@i,w
  2660  0DE0  0733               	addwf	set_time@arr,w
  2661  0DE1  00A9               	movwf	??_set_time
  2662  0DE2  0829               	movf	??_set_time,w
  2663  0DE3  0084               	movwf	4
  2664  0DE4  0180               	clrf	0
  2665  0DE5                     l2459:	
  2666                           
  2667                           ;alarm.c: 142:                 if(!i && (arr[i] == 24)) arr[i] = 0;
  2668  0DE5  0828               	movf	set_time@i,w
  2669  0DE6  1D03               	btfss	3,2
  2670  0DE7  2DE9               	goto	u2371
  2671  0DE8  2DEA               	goto	u2370
  2672  0DE9                     u2371:	
  2673  0DE9  2DFB               	goto	l2465
  2674  0DEA                     u2370:	
  2675  0DEA                     l2461:	
  2676  0DEA  0828               	movf	set_time@i,w
  2677  0DEB  0733               	addwf	set_time@arr,w
  2678  0DEC  00A9               	movwf	??_set_time
  2679  0DED  0829               	movf	??_set_time,w
  2680  0DEE  0084               	movwf	4
  2681  0DEF  3018               	movlw	24
  2682  0DF0  0600               	xorwf	0,w
  2683  0DF1  1D03               	btfss	3,2
  2684  0DF2  2DF4               	goto	u2381
  2685  0DF3  2DF5               	goto	u2380
  2686  0DF4                     u2381:	
  2687  0DF4  2DFB               	goto	l2465
  2688  0DF5                     u2380:	
  2689  0DF5                     l2463:	
  2690  0DF5  0828               	movf	set_time@i,w
  2691  0DF6  0733               	addwf	set_time@arr,w
  2692  0DF7  00A9               	movwf	??_set_time
  2693  0DF8  0829               	movf	??_set_time,w
  2694  0DF9  0084               	movwf	4
  2695  0DFA  0180               	clrf	0
  2696  0DFB                     l2465:	
  2697                           
  2698                           ;alarm.c: 143:                 for(char j = 0; j < 25; j++){
  2699  0DFB  01AF               	clrf	set_time@j_207
  2700  0DFC                     l2471:	
  2701                           
  2702                           ;alarm.c: 144:                     disp(arr[0], arr[1]);
  2703  0DFC  0A33               	incf	set_time@arr,w
  2704  0DFD  0084               	movwf	4
  2705  0DFE  1383               	bcf	3,7	;select IRP bank0
  2706  0DFF  0800               	movf	0,w
  2707  0E00  00A9               	movwf	??_set_time
  2708  0E01  0829               	movf	??_set_time,w
  2709  0E02  00FD               	movwf	disp@_2
  2710  0E03  0833               	movf	set_time@arr,w
  2711  0E04  0084               	movwf	4
  2712  0E05  0800               	movf	0,w
  2713  0E06  120A  118A  20C6  120A  158A  	fcall	_disp
  2714  0E0B                     l2473:	
  2715                           
  2716                           ;alarm.c: 145:                     real_time_counter();
  2717  0E0B  120A  158A  2443  120A  158A  	fcall	_real_time_counter
  2718  0E10                     l2475:	
  2719                           
  2720                           ;alarm.c: 146:                 }
  2721  0E10  3001               	movlw	1
  2722  0E11  1283               	bcf	3,5	;RP0=0, select bank0
  2723  0E12  1303               	bcf	3,6	;RP1=0, select bank0
  2724  0E13  00A9               	movwf	??_set_time
  2725  0E14  0829               	movf	??_set_time,w
  2726  0E15  07AF               	addwf	set_time@j_207,f
  2727  0E16                     l2477:	
  2728  0E16  3019               	movlw	25
  2729  0E17  022F               	subwf	set_time@j_207,w
  2730  0E18  1C03               	skipc
  2731  0E19  2E1B               	goto	u2391
  2732  0E1A  2E1C               	goto	u2390
  2733  0E1B                     u2391:	
  2734  0E1B  2DFC               	goto	l2471
  2735  0E1C                     u2390:	
  2736  0E1C  2E7B               	goto	l228
  2737  0E1D                     l2479:	
  2738                           
  2739                           ;alarm.c: 148:                     real_time_counter();
  2740  0E1D  120A  158A  2443  120A  158A  	fcall	_real_time_counter
  2741  0E22                     l2481:	
  2742                           
  2743                           ;alarm.c: 149:                     arr[i]++;
  2744  0E22  3001               	movlw	1
  2745  0E23  1283               	bcf	3,5	;RP0=0, select bank0
  2746  0E24  1303               	bcf	3,6	;RP1=0, select bank0
  2747  0E25  00A9               	movwf	??_set_time
  2748  0E26  0828               	movf	set_time@i,w
  2749  0E27  0733               	addwf	set_time@arr,w
  2750  0E28  00AA               	movwf	??_set_time+1
  2751  0E29  082A               	movf	??_set_time+1,w
  2752  0E2A  0084               	movwf	4
  2753  0E2B  0829               	movf	??_set_time,w
  2754  0E2C  1383               	bcf	3,7	;select IRP bank0
  2755  0E2D  0780               	addwf	0,f
  2756  0E2E                     l2483:	
  2757                           
  2758                           ;alarm.c: 150:                     if(i && (arr[i] == 60)) arr[i] = 0;
  2759  0E2E  0828               	movf	set_time@i,w
  2760  0E2F  1903               	btfsc	3,2
  2761  0E30  2E32               	goto	u2401
  2762  0E31  2E33               	goto	u2400
  2763  0E32                     u2401:	
  2764  0E32  2E44               	goto	l2489
  2765  0E33                     u2400:	
  2766  0E33                     l2485:	
  2767  0E33  0828               	movf	set_time@i,w
  2768  0E34  0733               	addwf	set_time@arr,w
  2769  0E35  00A9               	movwf	??_set_time
  2770  0E36  0829               	movf	??_set_time,w
  2771  0E37  0084               	movwf	4
  2772  0E38  303C               	movlw	60
  2773  0E39  0600               	xorwf	0,w
  2774  0E3A  1D03               	btfss	3,2
  2775  0E3B  2E3D               	goto	u2411
  2776  0E3C  2E3E               	goto	u2410
  2777  0E3D                     u2411:	
  2778  0E3D  2E44               	goto	l2489
  2779  0E3E                     u2410:	
  2780  0E3E                     l2487:	
  2781  0E3E  0828               	movf	set_time@i,w
  2782  0E3F  0733               	addwf	set_time@arr,w
  2783  0E40  00A9               	movwf	??_set_time
  2784  0E41  0829               	movf	??_set_time,w
  2785  0E42  0084               	movwf	4
  2786  0E43  0180               	clrf	0
  2787  0E44                     l2489:	
  2788                           
  2789                           ;alarm.c: 151:                     if(!i && (arr[i] == 24)) arr[i] = 0;
  2790  0E44  0828               	movf	set_time@i,w
  2791  0E45  1D03               	btfss	3,2
  2792  0E46  2E48               	goto	u2421
  2793  0E47  2E49               	goto	u2420
  2794  0E48                     u2421:	
  2795  0E48  2E5A               	goto	l2495
  2796  0E49                     u2420:	
  2797  0E49                     l2491:	
  2798  0E49  0828               	movf	set_time@i,w
  2799  0E4A  0733               	addwf	set_time@arr,w
  2800  0E4B  00A9               	movwf	??_set_time
  2801  0E4C  0829               	movf	??_set_time,w
  2802  0E4D  0084               	movwf	4
  2803  0E4E  3018               	movlw	24
  2804  0E4F  0600               	xorwf	0,w
  2805  0E50  1D03               	btfss	3,2
  2806  0E51  2E53               	goto	u2431
  2807  0E52  2E54               	goto	u2430
  2808  0E53                     u2431:	
  2809  0E53  2E5A               	goto	l2495
  2810  0E54                     u2430:	
  2811  0E54                     l2493:	
  2812  0E54  0828               	movf	set_time@i,w
  2813  0E55  0733               	addwf	set_time@arr,w
  2814  0E56  00A9               	movwf	??_set_time
  2815  0E57  0829               	movf	??_set_time,w
  2816  0E58  0084               	movwf	4
  2817  0E59  0180               	clrf	0
  2818  0E5A                     l2495:	
  2819                           
  2820                           ;alarm.c: 152:                     for(char j = 0; j < 10; j++){
  2821  0E5A  01B0               	clrf	set_time@j_208
  2822  0E5B                     l2501:	
  2823                           
  2824                           ;alarm.c: 153:                         disp(arr[0], arr[1]);
  2825  0E5B  0A33               	incf	set_time@arr,w
  2826  0E5C  0084               	movwf	4
  2827  0E5D  1383               	bcf	3,7	;select IRP bank0
  2828  0E5E  0800               	movf	0,w
  2829  0E5F  00A9               	movwf	??_set_time
  2830  0E60  0829               	movf	??_set_time,w
  2831  0E61  00FD               	movwf	disp@_2
  2832  0E62  0833               	movf	set_time@arr,w
  2833  0E63  0084               	movwf	4
  2834  0E64  0800               	movf	0,w
  2835  0E65  120A  118A  20C6  120A  158A  	fcall	_disp
  2836  0E6A                     l2503:	
  2837                           
  2838                           ;alarm.c: 154:                         real_time_counter();
  2839  0E6A  120A  158A  2443  120A  158A  	fcall	_real_time_counter
  2840  0E6F                     l2505:	
  2841                           
  2842                           ;alarm.c: 155:                     }
  2843  0E6F  3001               	movlw	1
  2844  0E70  1283               	bcf	3,5	;RP0=0, select bank0
  2845  0E71  1303               	bcf	3,6	;RP1=0, select bank0
  2846  0E72  00A9               	movwf	??_set_time
  2847  0E73  0829               	movf	??_set_time,w
  2848  0E74  07B0               	addwf	set_time@j_208,f
  2849  0E75                     l2507:	
  2850  0E75  300A               	movlw	10
  2851  0E76  0230               	subwf	set_time@j_208,w
  2852  0E77  1C03               	skipc
  2853  0E78  2E7A               	goto	u2441
  2854  0E79  2E7B               	goto	u2440
  2855  0E7A                     u2441:	
  2856  0E7A  2E5B               	goto	l2501
  2857  0E7B                     u2440:	
  2858  0E7B                     l228:	
  2859                           ;alarm.c: 156:                 }
  2860                           
  2861                           
  2862                           ;alarm.c: 147:                 while(RC2){
  2863  0E7B  1907               	btfsc	7,2	;volatile
  2864  0E7C  2E7E               	goto	u2451
  2865  0E7D  2E7F               	goto	u2450
  2866  0E7E                     u2451:	
  2867  0E7E  2E1D               	goto	l2479
  2868  0E7F                     u2450:	
  2869  0E7F                     l223:	
  2870                           ;alarm.c: 157:             }
  2871                           
  2872                           
  2873                           ;alarm.c: 159:             if(RC3){
  2874  0E7F  1D87               	btfss	7,3	;volatile
  2875  0E80  2E82               	goto	u2461
  2876  0E81  2E83               	goto	u2460
  2877  0E82                     u2461:	
  2878  0E82  2F5C               	goto	l235
  2879  0E83                     u2460:	
  2880  0E83                     l2509:	
  2881                           
  2882                           ;alarm.c: 160:                 if(arr[i] > 0) arr[i]--;
  2883  0E83  0828               	movf	set_time@i,w
  2884  0E84  0733               	addwf	set_time@arr,w
  2885  0E85  00A9               	movwf	??_set_time
  2886  0E86  0829               	movf	??_set_time,w
  2887  0E87  0084               	movwf	4
  2888  0E88  1383               	bcf	3,7	;select IRP bank0
  2889  0E89  0800               	movf	0,w
  2890  0E8A  1903               	btfsc	3,2
  2891  0E8B  2E8D               	goto	u2471
  2892  0E8C  2E8E               	goto	u2470
  2893  0E8D                     u2471:	
  2894  0E8D  2E96               	goto	l2513
  2895  0E8E                     u2470:	
  2896  0E8E                     l2511:	
  2897  0E8E  0828               	movf	set_time@i,w
  2898  0E8F  0733               	addwf	set_time@arr,w
  2899  0E90  00A9               	movwf	??_set_time
  2900  0E91  0829               	movf	??_set_time,w
  2901  0E92  0084               	movwf	4
  2902  0E93  3001               	movlw	1
  2903  0E94  0280               	subwf	0,f
  2904  0E95  2EC7               	goto	l2525
  2905  0E96                     l2513:	
  2906  0E96  0828               	movf	set_time@i,w
  2907  0E97  1903               	btfsc	3,2
  2908  0E98  2E9A               	goto	u2481
  2909  0E99  2E9B               	goto	u2480
  2910  0E9A                     u2481:	
  2911  0E9A  2EAF               	goto	l2519
  2912  0E9B                     u2480:	
  2913  0E9B                     l2515:	
  2914  0E9B  0828               	movf	set_time@i,w
  2915  0E9C  0733               	addwf	set_time@arr,w
  2916  0E9D  00A9               	movwf	??_set_time
  2917  0E9E  0829               	movf	??_set_time,w
  2918  0E9F  0084               	movwf	4
  2919  0EA0  0800               	movf	0,w
  2920  0EA1  1D03               	btfss	3,2
  2921  0EA2  2EA4               	goto	u2491
  2922  0EA3  2EA5               	goto	u2490
  2923  0EA4                     u2491:	
  2924  0EA4  2EAF               	goto	l2519
  2925  0EA5                     u2490:	
  2926  0EA5                     l2517:	
  2927  0EA5  303B               	movlw	59
  2928  0EA6  00A9               	movwf	??_set_time
  2929  0EA7  0828               	movf	set_time@i,w
  2930  0EA8  0733               	addwf	set_time@arr,w
  2931  0EA9  00AA               	movwf	??_set_time+1
  2932  0EAA  082A               	movf	??_set_time+1,w
  2933  0EAB  0084               	movwf	4
  2934  0EAC  0829               	movf	??_set_time,w
  2935  0EAD  0080               	movwf	0
  2936  0EAE  2EC7               	goto	l2525
  2937  0EAF                     l2519:	
  2938  0EAF  0828               	movf	set_time@i,w
  2939  0EB0  1D03               	btfss	3,2
  2940  0EB1  2EB3               	goto	u2501
  2941  0EB2  2EB4               	goto	u2500
  2942  0EB3                     u2501:	
  2943  0EB3  2EC7               	goto	l2525
  2944  0EB4                     u2500:	
  2945  0EB4                     l2521:	
  2946  0EB4  0828               	movf	set_time@i,w
  2947  0EB5  0733               	addwf	set_time@arr,w
  2948  0EB6  00A9               	movwf	??_set_time
  2949  0EB7  0829               	movf	??_set_time,w
  2950  0EB8  0084               	movwf	4
  2951  0EB9  0800               	movf	0,w
  2952  0EBA  1D03               	btfss	3,2
  2953  0EBB  2EBD               	goto	u2511
  2954  0EBC  2EBE               	goto	u2510
  2955  0EBD                     u2511:	
  2956  0EBD  2EC7               	goto	l2525
  2957  0EBE                     u2510:	
  2958  0EBE                     l2523:	
  2959  0EBE  3017               	movlw	23
  2960  0EBF  00A9               	movwf	??_set_time
  2961  0EC0  0828               	movf	set_time@i,w
  2962  0EC1  0733               	addwf	set_time@arr,w
  2963  0EC2  00AA               	movwf	??_set_time+1
  2964  0EC3  082A               	movf	??_set_time+1,w
  2965  0EC4  0084               	movwf	4
  2966  0EC5  0829               	movf	??_set_time,w
  2967  0EC6  0080               	movwf	0
  2968  0EC7                     l2525:	
  2969                           
  2970                           ;alarm.c: 164:                 for(char j = 0; j < 25; j++){
  2971  0EC7  01B1               	clrf	set_time@j_209
  2972  0EC8                     l2527:	
  2973  0EC8  3019               	movlw	25
  2974  0EC9  0231               	subwf	set_time@j_209,w
  2975  0ECA  1C03               	skipc
  2976  0ECB  2ECD               	goto	u2521
  2977  0ECC  2ECE               	goto	u2520
  2978  0ECD                     u2521:	
  2979  0ECD  2ECF               	goto	l2531
  2980  0ECE                     u2520:	
  2981  0ECE  2F58               	goto	l243
  2982  0ECF                     l2531:	
  2983                           
  2984                           ;alarm.c: 165:                     disp(arr[0], arr[1]);
  2985  0ECF  0A33               	incf	set_time@arr,w
  2986  0ED0  0084               	movwf	4
  2987  0ED1  1383               	bcf	3,7	;select IRP bank0
  2988  0ED2  0800               	movf	0,w
  2989  0ED3  00A9               	movwf	??_set_time
  2990  0ED4  0829               	movf	??_set_time,w
  2991  0ED5  00FD               	movwf	disp@_2
  2992  0ED6  0833               	movf	set_time@arr,w
  2993  0ED7  0084               	movwf	4
  2994  0ED8  0800               	movf	0,w
  2995  0ED9  120A  118A  20C6  120A  158A  	fcall	_disp
  2996  0EDE                     l2533:	
  2997                           
  2998                           ;alarm.c: 166:                     real_time_counter();
  2999  0EDE  120A  158A  2443  120A  158A  	fcall	_real_time_counter
  3000  0EE3                     l2535:	
  3001                           
  3002                           ;alarm.c: 167:                 }
  3003  0EE3  3001               	movlw	1
  3004  0EE4  1283               	bcf	3,5	;RP0=0, select bank0
  3005  0EE5  1303               	bcf	3,6	;RP1=0, select bank0
  3006  0EE6  00A9               	movwf	??_set_time
  3007  0EE7  0829               	movf	??_set_time,w
  3008  0EE8  07B1               	addwf	set_time@j_209,f
  3009  0EE9  2EC8               	goto	l2527
  3010  0EEA                     l2539:	
  3011                           
  3012                           ;alarm.c: 170:                     real_time_counter();
  3013  0EEA  120A  158A  2443  120A  158A  	fcall	_real_time_counter
  3014  0EEF                     l2541:	
  3015                           
  3016                           ;alarm.c: 171:                     if(arr[i] > 0) arr[i]--;
  3017  0EEF  1283               	bcf	3,5	;RP0=0, select bank0
  3018  0EF0  1303               	bcf	3,6	;RP1=0, select bank0
  3019  0EF1  0828               	movf	set_time@i,w
  3020  0EF2  0733               	addwf	set_time@arr,w
  3021  0EF3  00A9               	movwf	??_set_time
  3022  0EF4  0829               	movf	??_set_time,w
  3023  0EF5  0084               	movwf	4
  3024  0EF6  1383               	bcf	3,7	;select IRP bank0
  3025  0EF7  0800               	movf	0,w
  3026  0EF8  1903               	btfsc	3,2
  3027  0EF9  2EFB               	goto	u2531
  3028  0EFA  2EFC               	goto	u2530
  3029  0EFB                     u2531:	
  3030  0EFB  2F04               	goto	l2545
  3031  0EFC                     u2530:	
  3032  0EFC                     l2543:	
  3033  0EFC  0828               	movf	set_time@i,w
  3034  0EFD  0733               	addwf	set_time@arr,w
  3035  0EFE  00A9               	movwf	??_set_time
  3036  0EFF  0829               	movf	??_set_time,w
  3037  0F00  0084               	movwf	4
  3038  0F01  3001               	movlw	1
  3039  0F02  0280               	subwf	0,f
  3040  0F03  2F35               	goto	l2557
  3041  0F04                     l2545:	
  3042  0F04  0828               	movf	set_time@i,w
  3043  0F05  1903               	btfsc	3,2
  3044  0F06  2F08               	goto	u2541
  3045  0F07  2F09               	goto	u2540
  3046  0F08                     u2541:	
  3047  0F08  2F1D               	goto	l2551
  3048  0F09                     u2540:	
  3049  0F09                     l2547:	
  3050  0F09  0828               	movf	set_time@i,w
  3051  0F0A  0733               	addwf	set_time@arr,w
  3052  0F0B  00A9               	movwf	??_set_time
  3053  0F0C  0829               	movf	??_set_time,w
  3054  0F0D  0084               	movwf	4
  3055  0F0E  0800               	movf	0,w
  3056  0F0F  1D03               	btfss	3,2
  3057  0F10  2F12               	goto	u2551
  3058  0F11  2F13               	goto	u2550
  3059  0F12                     u2551:	
  3060  0F12  2F1D               	goto	l2551
  3061  0F13                     u2550:	
  3062  0F13                     l2549:	
  3063  0F13  303B               	movlw	59
  3064  0F14  00A9               	movwf	??_set_time
  3065  0F15  0828               	movf	set_time@i,w
  3066  0F16  0733               	addwf	set_time@arr,w
  3067  0F17  00AA               	movwf	??_set_time+1
  3068  0F18  082A               	movf	??_set_time+1,w
  3069  0F19  0084               	movwf	4
  3070  0F1A  0829               	movf	??_set_time,w
  3071  0F1B  0080               	movwf	0
  3072  0F1C  2F35               	goto	l2557
  3073  0F1D                     l2551:	
  3074  0F1D  0828               	movf	set_time@i,w
  3075  0F1E  1D03               	btfss	3,2
  3076  0F1F  2F21               	goto	u2561
  3077  0F20  2F22               	goto	u2560
  3078  0F21                     u2561:	
  3079  0F21  2F35               	goto	l2557
  3080  0F22                     u2560:	
  3081  0F22                     l2553:	
  3082  0F22  0828               	movf	set_time@i,w
  3083  0F23  0733               	addwf	set_time@arr,w
  3084  0F24  00A9               	movwf	??_set_time
  3085  0F25  0829               	movf	??_set_time,w
  3086  0F26  0084               	movwf	4
  3087  0F27  0800               	movf	0,w
  3088  0F28  1D03               	btfss	3,2
  3089  0F29  2F2B               	goto	u2571
  3090  0F2A  2F2C               	goto	u2570
  3091  0F2B                     u2571:	
  3092  0F2B  2F35               	goto	l2557
  3093  0F2C                     u2570:	
  3094  0F2C                     l2555:	
  3095  0F2C  3017               	movlw	23
  3096  0F2D  00A9               	movwf	??_set_time
  3097  0F2E  0828               	movf	set_time@i,w
  3098  0F2F  0733               	addwf	set_time@arr,w
  3099  0F30  00AA               	movwf	??_set_time+1
  3100  0F31  082A               	movf	??_set_time+1,w
  3101  0F32  0084               	movwf	4
  3102  0F33  0829               	movf	??_set_time,w
  3103  0F34  0080               	movwf	0
  3104  0F35                     l2557:	
  3105                           
  3106                           ;alarm.c: 174:                     for(char j = 0; j < 10; j++){
  3107  0F35  01B2               	clrf	set_time@j_210
  3108  0F36                     l2559:	
  3109  0F36  300A               	movlw	10
  3110  0F37  0232               	subwf	set_time@j_210,w
  3111  0F38  1C03               	skipc
  3112  0F39  2F3B               	goto	u2581
  3113  0F3A  2F3C               	goto	u2580
  3114  0F3B                     u2581:	
  3115  0F3B  2F3D               	goto	l2563
  3116  0F3C                     u2580:	
  3117  0F3C  2F58               	goto	l243
  3118  0F3D                     l2563:	
  3119                           
  3120                           ;alarm.c: 175:                         disp(arr[0], arr[1]);
  3121  0F3D  0A33               	incf	set_time@arr,w
  3122  0F3E  0084               	movwf	4
  3123  0F3F  1383               	bcf	3,7	;select IRP bank0
  3124  0F40  0800               	movf	0,w
  3125  0F41  00A9               	movwf	??_set_time
  3126  0F42  0829               	movf	??_set_time,w
  3127  0F43  00FD               	movwf	disp@_2
  3128  0F44  0833               	movf	set_time@arr,w
  3129  0F45  0084               	movwf	4
  3130  0F46  0800               	movf	0,w
  3131  0F47  120A  118A  20C6  120A  158A  	fcall	_disp
  3132  0F4C                     l2565:	
  3133                           
  3134                           ;alarm.c: 176:                         real_time_counter();
  3135  0F4C  120A  158A  2443  120A  158A  	fcall	_real_time_counter
  3136  0F51                     l2567:	
  3137                           
  3138                           ;alarm.c: 177:                     }
  3139  0F51  3001               	movlw	1
  3140  0F52  1283               	bcf	3,5	;RP0=0, select bank0
  3141  0F53  1303               	bcf	3,6	;RP1=0, select bank0
  3142  0F54  00A9               	movwf	??_set_time
  3143  0F55  0829               	movf	??_set_time,w
  3144  0F56  07B2               	addwf	set_time@j_210,f
  3145  0F57  2F36               	goto	l2559
  3146  0F58                     l243:	
  3147                           ;alarm.c: 178:                 }
  3148                           
  3149                           
  3150                           ;alarm.c: 169:                 while(RC3){
  3151  0F58  1987               	btfsc	7,3	;volatile
  3152  0F59  2F5B               	goto	u2591
  3153  0F5A  2F5C               	goto	u2590
  3154  0F5B                     u2591:	
  3155  0F5B  2EEA               	goto	l2539
  3156  0F5C                     u2590:	
  3157  0F5C                     l235:	
  3158                           ;alarm.c: 179:             }
  3159                           
  3160                           
  3161                           ;alarm.c: 181:             if(RC0){
  3162  0F5C  1C07               	btfss	7,0	;volatile
  3163  0F5D  2F5F               	goto	u2601
  3164  0F5E  2F60               	goto	u2600
  3165  0F5F                     u2601:	
  3166  0F5F  2F85               	goto	l2581
  3167  0F60                     u2600:	
  3168  0F60  2F75               	goto	l2577
  3169  0F61                     l2573:	
  3170                           
  3171                           ;alarm.c: 183:                     disp(arr[0], arr[1]);
  3172  0F61  0A33               	incf	set_time@arr,w
  3173  0F62  0084               	movwf	4
  3174  0F63  1383               	bcf	3,7	;select IRP bank0
  3175  0F64  0800               	movf	0,w
  3176  0F65  00A9               	movwf	??_set_time
  3177  0F66  0829               	movf	??_set_time,w
  3178  0F67  00FD               	movwf	disp@_2
  3179  0F68  0833               	movf	set_time@arr,w
  3180  0F69  0084               	movwf	4
  3181  0F6A  0800               	movf	0,w
  3182  0F6B  120A  118A  20C6  120A  158A  	fcall	_disp
  3183  0F70                     l2575:	
  3184                           
  3185                           ;alarm.c: 184:                     real_time_counter();
  3186  0F70  120A  158A  2443  120A  158A  	fcall	_real_time_counter
  3187  0F75                     l2577:	
  3188                           
  3189                           ;alarm.c: 182:                 while(RC0){
  3190  0F75  1283               	bcf	3,5	;RP0=0, select bank0
  3191  0F76  1303               	bcf	3,6	;RP1=0, select bank0
  3192  0F77  1807               	btfsc	7,0	;volatile
  3193  0F78  2F7A               	goto	u2611
  3194  0F79  2F7B               	goto	u2610
  3195  0F7A                     u2611:	
  3196  0F7A  2F61               	goto	l2573
  3197  0F7B                     u2610:	
  3198  0F7B                     l2579:	
  3199                           
  3200                           ;alarm.c: 186:                 i = !i;
  3201  0F7B  0828               	movf	set_time@i,w
  3202  0F7C  1903               	btfsc	3,2
  3203  0F7D  2F7F               	goto	u2621
  3204  0F7E  2F81               	goto	u2620
  3205  0F7F                     u2621:	
  3206  0F7F  3001               	movlw	1
  3207  0F80  2F82               	goto	u2630
  3208  0F81                     u2620:	
  3209  0F81  3000               	movlw	0
  3210  0F82                     u2630:	
  3211  0F82  00A9               	movwf	??_set_time
  3212  0F83  0829               	movf	??_set_time,w
  3213  0F84  00A8               	movwf	set_time@i
  3214  0F85                     l2581:	
  3215                           
  3216                           ;alarm.c: 189:             if(RC1){
  3217  0F85  1C87               	btfss	7,1	;volatile
  3218  0F86  2F88               	goto	u2641
  3219  0F87  2F89               	goto	u2640
  3220  0F88                     u2641:	
  3221  0F88  2DAB               	goto	l2445
  3222  0F89                     u2640:	
  3223  0F89                     l2583:	
  3224                           
  3225                           ;alarm.c: 190:                 for(char j = 0; j < 100 && RC1; j++){
  3226  0F89  01AE               	clrf	set_time@j_211
  3227  0F8A  2FA5               	goto	l2591
  3228  0F8B                     l2585:	
  3229                           
  3230                           ;alarm.c: 191:                     disp(arr[0], arr[1]);
  3231  0F8B  0A33               	incf	set_time@arr,w
  3232  0F8C  0084               	movwf	4
  3233  0F8D  1383               	bcf	3,7	;select IRP bank0
  3234  0F8E  0800               	movf	0,w
  3235  0F8F  00A9               	movwf	??_set_time
  3236  0F90  0829               	movf	??_set_time,w
  3237  0F91  00FD               	movwf	disp@_2
  3238  0F92  0833               	movf	set_time@arr,w
  3239  0F93  0084               	movwf	4
  3240  0F94  0800               	movf	0,w
  3241  0F95  120A  118A  20C6  120A  158A  	fcall	_disp
  3242  0F9A                     l2587:	
  3243                           
  3244                           ;alarm.c: 192:                     real_time_counter();
  3245  0F9A  120A  158A  2443  120A  158A  	fcall	_real_time_counter
  3246  0F9F                     l2589:	
  3247                           
  3248                           ;alarm.c: 193:                 }
  3249  0F9F  3001               	movlw	1
  3250  0FA0  1283               	bcf	3,5	;RP0=0, select bank0
  3251  0FA1  1303               	bcf	3,6	;RP1=0, select bank0
  3252  0FA2  00A9               	movwf	??_set_time
  3253  0FA3  0829               	movf	??_set_time,w
  3254  0FA4  07AE               	addwf	set_time@j_211,f
  3255  0FA5                     l2591:	
  3256  0FA5  3064               	movlw	100
  3257  0FA6  022E               	subwf	set_time@j_211,w
  3258  0FA7  1803               	skipnc
  3259  0FA8  2FAA               	goto	u2651
  3260  0FA9  2FAB               	goto	u2650
  3261  0FAA                     u2651:	
  3262  0FAA  2FAF               	goto	l262
  3263  0FAB                     u2650:	
  3264  0FAB                     l2593:	
  3265  0FAB  1887               	btfsc	7,1	;volatile
  3266  0FAC  2FAE               	goto	u2661
  3267  0FAD  2FAF               	goto	u2660
  3268  0FAE                     u2661:	
  3269  0FAE  2F8B               	goto	l2585
  3270  0FAF                     u2660:	
  3271  0FAF                     l262:	
  3272                           
  3273                           ;alarm.c: 194:                 if(!RC1) return 0;
  3274  0FAF  1887               	btfsc	7,1	;volatile
  3275  0FB0  2FB2               	goto	u2671
  3276  0FB1  2FB3               	goto	u2670
  3277  0FB2                     u2671:	
  3278  0FB2  2FB5               	goto	l2599
  3279  0FB3                     u2670:	
  3280  0FB3                     l2595:	
  3281  0FB3  3000               	movlw	0
  3282  0FB4  2FFF               	goto	l264
  3283  0FB5                     l2599:	
  3284                           
  3285                           ;alarm.c: 196:                 buzz(arr[0], arr[1]);
  3286  0FB5  0A33               	incf	set_time@arr,w
  3287  0FB6  0084               	movwf	4
  3288  0FB7  1383               	bcf	3,7	;select IRP bank0
  3289  0FB8  0800               	movf	0,w
  3290  0FB9  00A9               	movwf	??_set_time
  3291  0FBA  0829               	movf	??_set_time,w
  3292  0FBB  00A4               	movwf	buzz@t2
  3293  0FBC  0833               	movf	set_time@arr,w
  3294  0FBD  0084               	movwf	4
  3295  0FBE  0800               	movf	0,w
  3296  0FBF  120A  158A  2364  120A  158A  	fcall	_buzz
  3297                           
  3298                           ;alarm.c: 197:                 while(RC1){
  3299  0FC4  2FF8               	goto	l2605
  3300  0FC5                     l2601:	
  3301                           
  3302                           ;alarm.c: 198:                     disp_dig(1, ' ');
  3303  0FC5  3020               	movlw	32
  3304  0FC6  00A9               	movwf	??_set_time
  3305  0FC7  0829               	movf	??_set_time,w
  3306  0FC8  00F9               	movwf	disp_dig@dig
  3307  0FC9  3001               	movlw	1
  3308  0FCA  120A  158A  2340  120A  158A  	fcall	_disp_dig
  3309                           
  3310                           ;alarm.c: 199:                     disp_dig(2, 5);
  3311  0FCF  3005               	movlw	5
  3312  0FD0  1283               	bcf	3,5	;RP0=0, select bank0
  3313  0FD1  1303               	bcf	3,6	;RP1=0, select bank0
  3314  0FD2  00A9               	movwf	??_set_time
  3315  0FD3  0829               	movf	??_set_time,w
  3316  0FD4  00F9               	movwf	disp_dig@dig
  3317  0FD5  3002               	movlw	2
  3318  0FD6  120A  158A  2340  120A  158A  	fcall	_disp_dig
  3319                           
  3320                           ;alarm.c: 200:                     disp_dig(3, 'E');
  3321  0FDB  3045               	movlw	69
  3322  0FDC  1283               	bcf	3,5	;RP0=0, select bank0
  3323  0FDD  1303               	bcf	3,6	;RP1=0, select bank0
  3324  0FDE  00A9               	movwf	??_set_time
  3325  0FDF  0829               	movf	??_set_time,w
  3326  0FE0  00F9               	movwf	disp_dig@dig
  3327  0FE1  3003               	movlw	3
  3328  0FE2  120A  158A  2340  120A  158A  	fcall	_disp_dig
  3329                           
  3330                           ;alarm.c: 201:                     disp_dig(4, 'T');
  3331  0FE7  3054               	movlw	84
  3332  0FE8  1283               	bcf	3,5	;RP0=0, select bank0
  3333  0FE9  1303               	bcf	3,6	;RP1=0, select bank0
  3334  0FEA  00A9               	movwf	??_set_time
  3335  0FEB  0829               	movf	??_set_time,w
  3336  0FEC  00F9               	movwf	disp_dig@dig
  3337  0FED  3004               	movlw	4
  3338  0FEE  120A  158A  2340  120A  158A  	fcall	_disp_dig
  3339  0FF3                     l2603:	
  3340                           
  3341                           ;alarm.c: 202:                     real_time_counter();
  3342  0FF3  120A  158A  2443  120A  158A  	fcall	_real_time_counter
  3343  0FF8                     l2605:	
  3344                           
  3345                           ;alarm.c: 197:                 while(RC1){
  3346  0FF8  1283               	bcf	3,5	;RP0=0, select bank0
  3347  0FF9  1303               	bcf	3,6	;RP1=0, select bank0
  3348  0FFA  1887               	btfsc	7,1	;volatile
  3349  0FFB  2FFD               	goto	u2681
  3350  0FFC  2FFE               	goto	u2680
  3351  0FFD                     u2681:	
  3352  0FFD  2FC5               	goto	l2601
  3353  0FFE                     u2680:	
  3354  0FFE                     l2607:	
  3355                           
  3356                           ;alarm.c: 207:         return 1;
  3357  0FFE  3001               	movlw	1
  3358  0FFF                     l264:	
  3359  0FFF  0008               	return
  3360  1000                     __end_of_set_time:	
  3361                           
  3362                           	psect	text2
  3363  0B64                     __ptext2:	
  3364 ;; *************** function _buzz *****************
  3365 ;; Defined at:
  3366 ;;		line 96 in file "alarm.c"
  3367 ;; Parameters:    Size  Location     Type
  3368 ;;  t1              1    wreg     unsigned char 
  3369 ;;  t2              1    4[BANK0 ] unsigned char 
  3370 ;; Auto vars:     Size  Location     Type
  3371 ;;  t1              1    6[BANK0 ] unsigned char 
  3372 ;;  j               1    7[BANK0 ] unsigned char 
  3373 ;; Return value:  Size  Location     Type
  3374 ;;                  1    wreg      void 
  3375 ;; Registers used:
  3376 ;;		wreg, fsr0l, fsr0h, status,2, status,0, pclath, cstack
  3377 ;; Tracked objects:
  3378 ;;		On entry : 0/0
  3379 ;;		On exit  : 0/0
  3380 ;;		Unchanged: 0/0
  3381 ;; Data sizes:     COMMON   BANK0   BANK1   BANK3   BANK2
  3382 ;;      Params:         0       1       0       0       0
  3383 ;;      Locals:         0       2       0       0       0
  3384 ;;      Temps:          0       1       0       0       0
  3385 ;;      Totals:         0       4       0       0       0
  3386 ;;Total ram usage:        4 bytes
  3387 ;; Hardware stack levels used:    1
  3388 ;; Hardware stack levels required when called:    3
  3389 ;; This function calls:
  3390 ;;		_disp
  3391 ;;		_real_time_counter
  3392 ;; This function is called by:
  3393 ;;		_set_time
  3394 ;;		_main
  3395 ;; This function uses a non-reentrant model
  3396 ;;
  3397                           
  3398                           
  3399                           ;psect for function _buzz
  3400  0B64                     _buzz:	
  3401                           
  3402                           ;incstack = 0
  3403                           ; Regs used in _buzz: [wreg-fsr0h+status,2+status,0+pclath+cstack]
  3404                           ;buzz@t1 stored from wreg
  3405  0B64  1283               	bcf	3,5	;RP0=0, select bank0
  3406  0B65  1303               	bcf	3,6	;RP1=0, select bank0
  3407  0B66  00A6               	movwf	buzz@t1
  3408  0B67                     l2307:	
  3409                           
  3410                           ;alarm.c: 97:     RC5 = 0;
  3411  0B67  1287               	bcf	7,5	;volatile
  3412                           
  3413                           ;alarm.c: 98:     RC4 = 1;
  3414  0B68  1607               	bsf	7,4	;volatile
  3415  0B69                     l2309:	
  3416                           
  3417                           ;alarm.c: 99:     for(char j = 0; j < 10; j++){
  3418  0B69  01A7               	clrf	buzz@j
  3419  0B6A                     l2315:	
  3420                           
  3421                           ;alarm.c: 100:         disp(t1, t2);
  3422  0B6A  0824               	movf	buzz@t2,w
  3423  0B6B  00A5               	movwf	??_buzz
  3424  0B6C  0825               	movf	??_buzz,w
  3425  0B6D  00FD               	movwf	disp@_2
  3426  0B6E  0826               	movf	buzz@t1,w
  3427  0B6F  120A  118A  20C6  120A  158A  	fcall	_disp
  3428  0B74                     l2317:	
  3429                           
  3430                           ;alarm.c: 101:         real_time_counter();
  3431  0B74  120A  158A  2443  120A  158A  	fcall	_real_time_counter
  3432  0B79                     l2319:	
  3433                           
  3434                           ;alarm.c: 102:     }
  3435  0B79  3001               	movlw	1
  3436  0B7A  1283               	bcf	3,5	;RP0=0, select bank0
  3437  0B7B  1303               	bcf	3,6	;RP1=0, select bank0
  3438  0B7C  00A5               	movwf	??_buzz
  3439  0B7D  0825               	movf	??_buzz,w
  3440  0B7E  07A7               	addwf	buzz@j,f
  3441  0B7F                     l2321:	
  3442  0B7F  300A               	movlw	10
  3443  0B80  0227               	subwf	buzz@j,w
  3444  0B81  1C03               	skipc
  3445  0B82  2B84               	goto	u2141
  3446  0B83  2B85               	goto	u2140
  3447  0B84                     u2141:	
  3448  0B84  2B6A               	goto	l2315
  3449  0B85                     u2140:	
  3450  0B85                     l199:	
  3451                           
  3452                           ;alarm.c: 103:     RC4 = 0;
  3453  0B85  1207               	bcf	7,4	;volatile
  3454                           
  3455                           ;alarm.c: 104:     RC5 = 1;
  3456  0B86  1687               	bsf	7,5	;volatile
  3457  0B87                     l200:	
  3458  0B87  0008               	return
  3459  0B88                     __end_of_buzz:	
  3460                           
  3461                           	psect	text3
  3462  00C6                     __ptext3:	
  3463 ;; *************** function _disp *****************
  3464 ;; Defined at:
  3465 ;;		line 41 in file "alarm.c"
  3466 ;; Parameters:    Size  Location     Type
  3467 ;;  _1              1    wreg     unsigned char 
  3468 ;;  _2              1   13[COMMON] unsigned char 
  3469 ;; Auto vars:     Size  Location     Type
  3470 ;;  _1              1    3[BANK0 ] unsigned char 
  3471 ;; Return value:  Size  Location     Type
  3472 ;;                  1    wreg      void 
  3473 ;; Registers used:
  3474 ;;		wreg, fsr0l, fsr0h, status,2, status,0, pclath, cstack
  3475 ;; Tracked objects:
  3476 ;;		On entry : 0/0
  3477 ;;		On exit  : 0/0
  3478 ;;		Unchanged: 0/0
  3479 ;; Data sizes:     COMMON   BANK0   BANK1   BANK3   BANK2
  3480 ;;      Params:         1       0       0       0       0
  3481 ;;      Locals:         0       1       0       0       0
  3482 ;;      Temps:          0       3       0       0       0
  3483 ;;      Totals:         1       4       0       0       0
  3484 ;;Total ram usage:        5 bytes
  3485 ;; Hardware stack levels used:    1
  3486 ;; Hardware stack levels required when called:    2
  3487 ;; This function calls:
  3488 ;;		___awdiv
  3489 ;;		___awmod
  3490 ;;		_disp_dig
  3491 ;; This function is called by:
  3492 ;;		_buzz
  3493 ;;		_set_time
  3494 ;;		_main
  3495 ;;		_clock_init
  3496 ;; This function uses a non-reentrant model
  3497 ;;
  3498                           
  3499                           
  3500                           ;psect for function _disp
  3501  00C6                     _disp:	
  3502                           
  3503                           ;incstack = 0
  3504                           ; Regs used in _disp: [wreg-fsr0h+status,2+status,0+pclath+cstack]
  3505                           ;disp@_1 stored from wreg
  3506  00C6  1283               	bcf	3,5	;RP0=0, select bank0
  3507  00C7  1303               	bcf	3,6	;RP1=0, select bank0
  3508  00C8  00A3               	movwf	disp@_1
  3509  00C9                     l2249:	
  3510                           
  3511                           ;alarm.c: 42:     disp_dig(1, _1/10);
  3512  00C9  300A               	movlw	10
  3513  00CA  00F0               	movwf	___awdiv@divisor
  3514  00CB  3000               	movlw	0
  3515  00CC  00F1               	movwf	___awdiv@divisor+1
  3516  00CD  0823               	movf	disp@_1,w
  3517  00CE  00A0               	movwf	??_disp
  3518  00CF  01A1               	clrf	??_disp+1
  3519  00D0  0820               	movf	??_disp,w
  3520  00D1  00F2               	movwf	___awdiv@dividend
  3521  00D2  0821               	movf	??_disp+1,w
  3522  00D3  00F3               	movwf	___awdiv@dividend+1
  3523  00D4  120A  118A  205F  120A  118A  	fcall	___awdiv
  3524  00D9  0870               	movf	?___awdiv,w
  3525  00DA  1283               	bcf	3,5	;RP0=0, select bank0
  3526  00DB  1303               	bcf	3,6	;RP1=0, select bank0
  3527  00DC  00A2               	movwf	??_disp+2
  3528  00DD  0822               	movf	??_disp+2,w
  3529  00DE  00F9               	movwf	disp_dig@dig
  3530  00DF  3001               	movlw	1
  3531  00E0  120A  158A  2340  120A  118A  	fcall	_disp_dig
  3532                           
  3533                           ;alarm.c: 43:     disp_dig(2, _1%10);
  3534  00E5  300A               	movlw	10
  3535  00E6  00F0               	movwf	___awmod@divisor
  3536  00E7  3000               	movlw	0
  3537  00E8  00F1               	movwf	___awmod@divisor+1
  3538  00E9  1283               	bcf	3,5	;RP0=0, select bank0
  3539  00EA  1303               	bcf	3,6	;RP1=0, select bank0
  3540  00EB  0823               	movf	disp@_1,w
  3541  00EC  00A0               	movwf	??_disp
  3542  00ED  01A1               	clrf	??_disp+1
  3543  00EE  0820               	movf	??_disp,w
  3544  00EF  00F2               	movwf	___awmod@dividend
  3545  00F0  0821               	movf	??_disp+1,w
  3546  00F1  00F3               	movwf	___awmod@dividend+1
  3547  00F2  120A  118A  2006  120A  118A  	fcall	___awmod
  3548  00F7  0870               	movf	?___awmod,w
  3549  00F8  1283               	bcf	3,5	;RP0=0, select bank0
  3550  00F9  1303               	bcf	3,6	;RP1=0, select bank0
  3551  00FA  00A2               	movwf	??_disp+2
  3552  00FB  0822               	movf	??_disp+2,w
  3553  00FC  00F9               	movwf	disp_dig@dig
  3554  00FD  3002               	movlw	2
  3555  00FE  120A  158A  2340  120A  118A  	fcall	_disp_dig
  3556                           
  3557                           ;alarm.c: 44:     disp_dig(3, _2/10);
  3558  0103  300A               	movlw	10
  3559  0104  00F0               	movwf	___awdiv@divisor
  3560  0105  3000               	movlw	0
  3561  0106  00F1               	movwf	___awdiv@divisor+1
  3562  0107  087D               	movf	disp@_2,w
  3563  0108  1283               	bcf	3,5	;RP0=0, select bank0
  3564  0109  1303               	bcf	3,6	;RP1=0, select bank0
  3565  010A  00A0               	movwf	??_disp
  3566  010B  01A1               	clrf	??_disp+1
  3567  010C  0820               	movf	??_disp,w
  3568  010D  00F2               	movwf	___awdiv@dividend
  3569  010E  0821               	movf	??_disp+1,w
  3570  010F  00F3               	movwf	___awdiv@dividend+1
  3571  0110  120A  118A  205F  120A  118A  	fcall	___awdiv
  3572  0115  0870               	movf	?___awdiv,w
  3573  0116  1283               	bcf	3,5	;RP0=0, select bank0
  3574  0117  1303               	bcf	3,6	;RP1=0, select bank0
  3575  0118  00A2               	movwf	??_disp+2
  3576  0119  0822               	movf	??_disp+2,w
  3577  011A  00F9               	movwf	disp_dig@dig
  3578  011B  3003               	movlw	3
  3579  011C  120A  158A  2340  120A  118A  	fcall	_disp_dig
  3580                           
  3581                           ;alarm.c: 45:     disp_dig(4, _2%10);
  3582  0121  300A               	movlw	10
  3583  0122  00F0               	movwf	___awmod@divisor
  3584  0123  3000               	movlw	0
  3585  0124  00F1               	movwf	___awmod@divisor+1
  3586  0125  087D               	movf	disp@_2,w
  3587  0126  1283               	bcf	3,5	;RP0=0, select bank0
  3588  0127  1303               	bcf	3,6	;RP1=0, select bank0
  3589  0128  00A0               	movwf	??_disp
  3590  0129  01A1               	clrf	??_disp+1
  3591  012A  0820               	movf	??_disp,w
  3592  012B  00F2               	movwf	___awmod@dividend
  3593  012C  0821               	movf	??_disp+1,w
  3594  012D  00F3               	movwf	___awmod@dividend+1
  3595  012E  120A  118A  2006  120A  118A  	fcall	___awmod
  3596  0133  0870               	movf	?___awmod,w
  3597  0134  1283               	bcf	3,5	;RP0=0, select bank0
  3598  0135  1303               	bcf	3,6	;RP1=0, select bank0
  3599  0136  00A2               	movwf	??_disp+2
  3600  0137  0822               	movf	??_disp+2,w
  3601  0138  00F9               	movwf	disp_dig@dig
  3602  0139  3004               	movlw	4
  3603  013A  120A  158A  2340  120A  118A  	fcall	_disp_dig
  3604  013F                     l180:	
  3605  013F  0008               	return
  3606  0140                     __end_of_disp:	
  3607                           
  3608                           	psect	text4
  3609  0006                     __ptext4:	
  3610 ;; *************** function ___awmod *****************
  3611 ;; Defined at:
  3612 ;;		line 5 in file "C:\Program Files (x86)\Microchip\xc8\v2.10\pic\sources\c90\common\awmod.c"
  3613 ;; Parameters:    Size  Location     Type
  3614 ;;  divisor         2    0[COMMON] int 
  3615 ;;  dividend        2    2[COMMON] int 
  3616 ;; Auto vars:     Size  Location     Type
  3617 ;;  sign            1    6[COMMON] unsigned char 
  3618 ;;  counter         1    5[COMMON] unsigned char 
  3619 ;; Return value:  Size  Location     Type
  3620 ;;                  2    0[COMMON] int 
  3621 ;; Registers used:
  3622 ;;		wreg, status,2, status,0
  3623 ;; Tracked objects:
  3624 ;;		On entry : 0/0
  3625 ;;		On exit  : 0/0
  3626 ;;		Unchanged: 0/0
  3627 ;; Data sizes:     COMMON   BANK0   BANK1   BANK3   BANK2
  3628 ;;      Params:         4       0       0       0       0
  3629 ;;      Locals:         2       0       0       0       0
  3630 ;;      Temps:          1       0       0       0       0
  3631 ;;      Totals:         7       0       0       0       0
  3632 ;;Total ram usage:        7 bytes
  3633 ;; Hardware stack levels used:    1
  3634 ;; This function calls:
  3635 ;;		Nothing
  3636 ;; This function is called by:
  3637 ;;		_disp
  3638 ;;		_main
  3639 ;; This function uses a non-reentrant model
  3640 ;;
  3641                           
  3642                           
  3643                           ;psect for function ___awmod
  3644  0006                     ___awmod:	
  3645  0006                     l2171:	
  3646                           ;incstack = 0
  3647                           ; Regs used in ___awmod: [wreg+status,2+status,0]
  3648                           
  3649  0006  01F6               	clrf	___awmod@sign
  3650  0007                     l2173:	
  3651  0007  1FF3               	btfss	___awmod@dividend+1,7
  3652  0008  280A               	goto	u1891
  3653  0009  280B               	goto	u1890
  3654  000A                     u1891:	
  3655  000A  2812               	goto	l2179
  3656  000B                     u1890:	
  3657  000B                     l2175:	
  3658  000B  09F2               	comf	___awmod@dividend,f
  3659  000C  09F3               	comf	___awmod@dividend+1,f
  3660  000D  0AF2               	incf	___awmod@dividend,f
  3661  000E  1903               	skipnz
  3662  000F  0AF3               	incf	___awmod@dividend+1,f
  3663  0010                     l2177:	
  3664  0010  01F6               	clrf	___awmod@sign
  3665  0011  0AF6               	incf	___awmod@sign,f
  3666  0012                     l2179:	
  3667  0012  1FF1               	btfss	___awmod@divisor+1,7
  3668  0013  2815               	goto	u1901
  3669  0014  2816               	goto	u1900
  3670  0015                     u1901:	
  3671  0015  281B               	goto	l2183
  3672  0016                     u1900:	
  3673  0016                     l2181:	
  3674  0016  09F0               	comf	___awmod@divisor,f
  3675  0017  09F1               	comf	___awmod@divisor+1,f
  3676  0018  0AF0               	incf	___awmod@divisor,f
  3677  0019  1903               	skipnz
  3678  001A  0AF1               	incf	___awmod@divisor+1,f
  3679  001B                     l2183:	
  3680  001B  0870               	movf	___awmod@divisor,w
  3681  001C  0471               	iorwf	___awmod@divisor+1,w
  3682  001D  1903               	btfsc	3,2
  3683  001E  2820               	goto	u1911
  3684  001F  2821               	goto	u1910
  3685  0020                     u1911:	
  3686  0020  2850               	goto	l2201
  3687  0021                     u1910:	
  3688  0021                     l2185:	
  3689  0021  01F5               	clrf	___awmod@counter
  3690  0022  0AF5               	incf	___awmod@counter,f
  3691  0023  282F               	goto	l2191
  3692  0024                     l2187:	
  3693  0024  3001               	movlw	1
  3694  0025                     u1925:	
  3695  0025  1003               	clrc
  3696  0026  0DF0               	rlf	___awmod@divisor,f
  3697  0027  0DF1               	rlf	___awmod@divisor+1,f
  3698  0028  3EFF               	addlw	-1
  3699  0029  1D03               	skipz
  3700  002A  2825               	goto	u1925
  3701  002B                     l2189:	
  3702  002B  3001               	movlw	1
  3703  002C  00F4               	movwf	??___awmod
  3704  002D  0874               	movf	??___awmod,w
  3705  002E  07F5               	addwf	___awmod@counter,f
  3706  002F                     l2191:	
  3707  002F  1FF1               	btfss	___awmod@divisor+1,7
  3708  0030  2832               	goto	u1931
  3709  0031  2833               	goto	u1930
  3710  0032                     u1931:	
  3711  0032  2824               	goto	l2187
  3712  0033                     u1930:	
  3713  0033                     l2193:	
  3714  0033  0871               	movf	___awmod@divisor+1,w
  3715  0034  0273               	subwf	___awmod@dividend+1,w
  3716  0035  1D03               	skipz
  3717  0036  2839               	goto	u1945
  3718  0037  0870               	movf	___awmod@divisor,w
  3719  0038  0272               	subwf	___awmod@dividend,w
  3720  0039                     u1945:	
  3721  0039  1C03               	skipc
  3722  003A  283C               	goto	u1941
  3723  003B  283D               	goto	u1940
  3724  003C                     u1941:	
  3725  003C  2843               	goto	l2197
  3726  003D                     u1940:	
  3727  003D                     l2195:	
  3728  003D  0870               	movf	___awmod@divisor,w
  3729  003E  02F2               	subwf	___awmod@dividend,f
  3730  003F  0871               	movf	___awmod@divisor+1,w
  3731  0040  1C03               	skipc
  3732  0041  03F3               	decf	___awmod@dividend+1,f
  3733  0042  02F3               	subwf	___awmod@dividend+1,f
  3734  0043                     l2197:	
  3735  0043  3001               	movlw	1
  3736  0044                     u1955:	
  3737  0044  1003               	clrc
  3738  0045  0CF1               	rrf	___awmod@divisor+1,f
  3739  0046  0CF0               	rrf	___awmod@divisor,f
  3740  0047  3EFF               	addlw	-1
  3741  0048  1D03               	skipz
  3742  0049  2844               	goto	u1955
  3743  004A                     l2199:	
  3744  004A  3001               	movlw	1
  3745  004B  02F5               	subwf	___awmod@counter,f
  3746  004C  1D03               	btfss	3,2
  3747  004D  284F               	goto	u1961
  3748  004E  2850               	goto	u1960
  3749  004F                     u1961:	
  3750  004F  2833               	goto	l2193
  3751  0050                     u1960:	
  3752  0050                     l2201:	
  3753  0050  0876               	movf	___awmod@sign,w
  3754  0051  1903               	btfsc	3,2
  3755  0052  2854               	goto	u1971
  3756  0053  2855               	goto	u1970
  3757  0054                     u1971:	
  3758  0054  285A               	goto	l2205
  3759  0055                     u1970:	
  3760  0055                     l2203:	
  3761  0055  09F2               	comf	___awmod@dividend,f
  3762  0056  09F3               	comf	___awmod@dividend+1,f
  3763  0057  0AF2               	incf	___awmod@dividend,f
  3764  0058  1903               	skipnz
  3765  0059  0AF3               	incf	___awmod@dividend+1,f
  3766  005A                     l2205:	
  3767  005A  0873               	movf	___awmod@dividend+1,w
  3768  005B  00F1               	movwf	?___awmod+1
  3769  005C  0872               	movf	___awmod@dividend,w
  3770  005D  00F0               	movwf	?___awmod
  3771  005E                     l679:	
  3772  005E  0008               	return
  3773  005F                     __end_of___awmod:	
  3774                           
  3775                           	psect	text5
  3776  005F                     __ptext5:	
  3777 ;; *************** function ___awdiv *****************
  3778 ;; Defined at:
  3779 ;;		line 5 in file "C:\Program Files (x86)\Microchip\xc8\v2.10\pic\sources\c90\common\awdiv.c"
  3780 ;; Parameters:    Size  Location     Type
  3781 ;;  divisor         2    0[COMMON] int 
  3782 ;;  dividend        2    2[COMMON] int 
  3783 ;; Auto vars:     Size  Location     Type
  3784 ;;  quotient        2    7[COMMON] int 
  3785 ;;  sign            1    6[COMMON] unsigned char 
  3786 ;;  counter         1    5[COMMON] unsigned char 
  3787 ;; Return value:  Size  Location     Type
  3788 ;;                  2    0[COMMON] int 
  3789 ;; Registers used:
  3790 ;;		wreg, status,2, status,0
  3791 ;; Tracked objects:
  3792 ;;		On entry : 0/0
  3793 ;;		On exit  : 0/0
  3794 ;;		Unchanged: 0/0
  3795 ;; Data sizes:     COMMON   BANK0   BANK1   BANK3   BANK2
  3796 ;;      Params:         4       0       0       0       0
  3797 ;;      Locals:         4       0       0       0       0
  3798 ;;      Temps:          1       0       0       0       0
  3799 ;;      Totals:         9       0       0       0       0
  3800 ;;Total ram usage:        9 bytes
  3801 ;; Hardware stack levels used:    1
  3802 ;; This function calls:
  3803 ;;		Nothing
  3804 ;; This function is called by:
  3805 ;;		_disp
  3806 ;;		_main
  3807 ;; This function uses a non-reentrant model
  3808 ;;
  3809                           
  3810                           
  3811                           ;psect for function ___awdiv
  3812  005F                     ___awdiv:	
  3813  005F                     l2127:	
  3814                           ;incstack = 0
  3815                           ; Regs used in ___awdiv: [wreg+status,2+status,0]
  3816                           
  3817  005F  01F6               	clrf	___awdiv@sign
  3818  0060                     l2129:	
  3819  0060  1FF1               	btfss	___awdiv@divisor+1,7
  3820  0061  2863               	goto	u1791
  3821  0062  2864               	goto	u1790
  3822  0063                     u1791:	
  3823  0063  286B               	goto	l2135
  3824  0064                     u1790:	
  3825  0064                     l2131:	
  3826  0064  09F0               	comf	___awdiv@divisor,f
  3827  0065  09F1               	comf	___awdiv@divisor+1,f
  3828  0066  0AF0               	incf	___awdiv@divisor,f
  3829  0067  1903               	skipnz
  3830  0068  0AF1               	incf	___awdiv@divisor+1,f
  3831  0069                     l2133:	
  3832  0069  01F6               	clrf	___awdiv@sign
  3833  006A  0AF6               	incf	___awdiv@sign,f
  3834  006B                     l2135:	
  3835  006B  1FF3               	btfss	___awdiv@dividend+1,7
  3836  006C  286E               	goto	u1801
  3837  006D  286F               	goto	u1800
  3838  006E                     u1801:	
  3839  006E  2878               	goto	l2141
  3840  006F                     u1800:	
  3841  006F                     l2137:	
  3842  006F  09F2               	comf	___awdiv@dividend,f
  3843  0070  09F3               	comf	___awdiv@dividend+1,f
  3844  0071  0AF2               	incf	___awdiv@dividend,f
  3845  0072  1903               	skipnz
  3846  0073  0AF3               	incf	___awdiv@dividend+1,f
  3847  0074                     l2139:	
  3848  0074  3001               	movlw	1
  3849  0075  00F4               	movwf	??___awdiv
  3850  0076  0874               	movf	??___awdiv,w
  3851  0077  06F6               	xorwf	___awdiv@sign,f
  3852  0078                     l2141:	
  3853  0078  01F7               	clrf	___awdiv@quotient
  3854  0079  01F8               	clrf	___awdiv@quotient+1
  3855  007A                     l2143:	
  3856  007A  0870               	movf	___awdiv@divisor,w
  3857  007B  0471               	iorwf	___awdiv@divisor+1,w
  3858  007C  1903               	btfsc	3,2
  3859  007D  287F               	goto	u1811
  3860  007E  2880               	goto	u1810
  3861  007F                     u1811:	
  3862  007F  28B7               	goto	l2163
  3863  0080                     u1810:	
  3864  0080                     l2145:	
  3865  0080  01F5               	clrf	___awdiv@counter
  3866  0081  0AF5               	incf	___awdiv@counter,f
  3867  0082  288E               	goto	l2151
  3868  0083                     l2147:	
  3869  0083  3001               	movlw	1
  3870  0084                     u1825:	
  3871  0084  1003               	clrc
  3872  0085  0DF0               	rlf	___awdiv@divisor,f
  3873  0086  0DF1               	rlf	___awdiv@divisor+1,f
  3874  0087  3EFF               	addlw	-1
  3875  0088  1D03               	skipz
  3876  0089  2884               	goto	u1825
  3877  008A                     l2149:	
  3878  008A  3001               	movlw	1
  3879  008B  00F4               	movwf	??___awdiv
  3880  008C  0874               	movf	??___awdiv,w
  3881  008D  07F5               	addwf	___awdiv@counter,f
  3882  008E                     l2151:	
  3883  008E  1FF1               	btfss	___awdiv@divisor+1,7
  3884  008F  2891               	goto	u1831
  3885  0090  2892               	goto	u1830
  3886  0091                     u1831:	
  3887  0091  2883               	goto	l2147
  3888  0092                     u1830:	
  3889  0092                     l2153:	
  3890  0092  3001               	movlw	1
  3891  0093                     u1845:	
  3892  0093  1003               	clrc
  3893  0094  0DF7               	rlf	___awdiv@quotient,f
  3894  0095  0DF8               	rlf	___awdiv@quotient+1,f
  3895  0096  3EFF               	addlw	-1
  3896  0097  1D03               	skipz
  3897  0098  2893               	goto	u1845
  3898  0099  0871               	movf	___awdiv@divisor+1,w
  3899  009A  0273               	subwf	___awdiv@dividend+1,w
  3900  009B  1D03               	skipz
  3901  009C  289F               	goto	u1855
  3902  009D  0870               	movf	___awdiv@divisor,w
  3903  009E  0272               	subwf	___awdiv@dividend,w
  3904  009F                     u1855:	
  3905  009F  1C03               	skipc
  3906  00A0  28A2               	goto	u1851
  3907  00A1  28A3               	goto	u1850
  3908  00A2                     u1851:	
  3909  00A2  28AA               	goto	l2159
  3910  00A3                     u1850:	
  3911  00A3                     l2155:	
  3912  00A3  0870               	movf	___awdiv@divisor,w
  3913  00A4  02F2               	subwf	___awdiv@dividend,f
  3914  00A5  0871               	movf	___awdiv@divisor+1,w
  3915  00A6  1C03               	skipc
  3916  00A7  03F3               	decf	___awdiv@dividend+1,f
  3917  00A8  02F3               	subwf	___awdiv@dividend+1,f
  3918  00A9                     l2157:	
  3919  00A9  1477               	bsf	___awdiv@quotient,0
  3920  00AA                     l2159:	
  3921  00AA  3001               	movlw	1
  3922  00AB                     u1865:	
  3923  00AB  1003               	clrc
  3924  00AC  0CF1               	rrf	___awdiv@divisor+1,f
  3925  00AD  0CF0               	rrf	___awdiv@divisor,f
  3926  00AE  3EFF               	addlw	-1
  3927  00AF  1D03               	skipz
  3928  00B0  28AB               	goto	u1865
  3929  00B1                     l2161:	
  3930  00B1  3001               	movlw	1
  3931  00B2  02F5               	subwf	___awdiv@counter,f
  3932  00B3  1D03               	btfss	3,2
  3933  00B4  28B6               	goto	u1871
  3934  00B5  28B7               	goto	u1870
  3935  00B6                     u1871:	
  3936  00B6  2892               	goto	l2153
  3937  00B7                     u1870:	
  3938  00B7                     l2163:	
  3939  00B7  0876               	movf	___awdiv@sign,w
  3940  00B8  1903               	btfsc	3,2
  3941  00B9  28BB               	goto	u1881
  3942  00BA  28BC               	goto	u1880
  3943  00BB                     u1881:	
  3944  00BB  28C1               	goto	l2167
  3945  00BC                     u1880:	
  3946  00BC                     l2165:	
  3947  00BC  09F7               	comf	___awdiv@quotient,f
  3948  00BD  09F8               	comf	___awdiv@quotient+1,f
  3949  00BE  0AF7               	incf	___awdiv@quotient,f
  3950  00BF  1903               	skipnz
  3951  00C0  0AF8               	incf	___awdiv@quotient+1,f
  3952  00C1                     l2167:	
  3953  00C1  0878               	movf	___awdiv@quotient+1,w
  3954  00C2  00F1               	movwf	?___awdiv+1
  3955  00C3  0877               	movf	___awdiv@quotient,w
  3956  00C4  00F0               	movwf	?___awdiv
  3957  00C5                     l666:	
  3958  00C5  0008               	return
  3959  00C6                     __end_of___awdiv:	
  3960                           
  3961                           	psect	text6
  3962  0B20                     __ptext6:	
  3963 ;; *************** function _disp_alarm *****************
  3964 ;; Defined at:
  3965 ;;		line 287 in file "alarm.c"
  3966 ;; Parameters:    Size  Location     Type
  3967 ;;		None
  3968 ;; Auto vars:     Size  Location     Type
  3969 ;;		None
  3970 ;; Return value:  Size  Location     Type
  3971 ;;                  1    wreg      void 
  3972 ;; Registers used:
  3973 ;;		wreg, fsr0l, fsr0h, status,2, status,0, pclath, cstack
  3974 ;; Tracked objects:
  3975 ;;		On entry : 0/0
  3976 ;;		On exit  : 0/0
  3977 ;;		Unchanged: 0/0
  3978 ;; Data sizes:     COMMON   BANK0   BANK1   BANK3   BANK2
  3979 ;;      Params:         0       0       0       0       0
  3980 ;;      Locals:         0       0       0       0       0
  3981 ;;      Temps:          0       0       0       0       0
  3982 ;;      Totals:         0       0       0       0       0
  3983 ;;Total ram usage:        0 bytes
  3984 ;; Hardware stack levels used:    1
  3985 ;; Hardware stack levels required when called:    3
  3986 ;; This function calls:
  3987 ;;		_disp_alarm_no
  3988 ;;		_disp_alarm_state
  3989 ;; This function is called by:
  3990 ;;		_main
  3991 ;; This function uses a non-reentrant model
  3992 ;;
  3993                           
  3994                           
  3995                           ;psect for function _disp_alarm
  3996  0B20                     _disp_alarm:	
  3997  0B20                     l2661:	
  3998                           ;incstack = 0
  3999                           ; Regs used in _disp_alarm: [wreg-fsr0h+status,2+status,0+pclath+cstack]
  4000                           
  4001                           
  4002                           ;alarm.c: 288:     disp_alarm_no();
  4003  0B20  120A  158A  247E  120A  158A  	fcall	_disp_alarm_no
  4004                           
  4005                           ;alarm.c: 289:     disp_alarm_state();
  4006  0B25  120A  118A  2140  120A  158A  	fcall	_disp_alarm_state
  4007  0B2A                     l306:	
  4008  0B2A  0008               	return
  4009  0B2B                     __end_of_disp_alarm:	
  4010                           
  4011                           	psect	text7
  4012  0140                     __ptext7:	
  4013 ;; *************** function _disp_alarm_state *****************
  4014 ;; Defined at:
  4015 ;;		line 264 in file "alarm.c"
  4016 ;; Parameters:    Size  Location     Type
  4017 ;;		None
  4018 ;; Auto vars:     Size  Location     Type
  4019 ;;  i               1    1[BANK0 ] unsigned char 
  4020 ;;  i               1    0[BANK0 ] unsigned char 
  4021 ;; Return value:  Size  Location     Type
  4022 ;;                  1    wreg      void 
  4023 ;; Registers used:
  4024 ;;		wreg, fsr0l, fsr0h, status,2, status,0, pclath, cstack
  4025 ;; Tracked objects:
  4026 ;;		On entry : 0/0
  4027 ;;		On exit  : 0/0
  4028 ;;		Unchanged: 0/0
  4029 ;; Data sizes:     COMMON   BANK0   BANK1   BANK3   BANK2
  4030 ;;      Params:         0       0       0       0       0
  4031 ;;      Locals:         0       2       0       0       0
  4032 ;;      Temps:          1       0       0       0       0
  4033 ;;      Totals:         1       2       0       0       0
  4034 ;;Total ram usage:        3 bytes
  4035 ;; Hardware stack levels used:    1
  4036 ;; Hardware stack levels required when called:    2
  4037 ;; This function calls:
  4038 ;;		_disp_dig
  4039 ;;		_real_time_counter
  4040 ;; This function is called by:
  4041 ;;		_disp_alarm
  4042 ;;		_main
  4043 ;; This function uses a non-reentrant model
  4044 ;;
  4045                           
  4046                           
  4047                           ;psect for function _disp_alarm_state
  4048  0140                     _disp_alarm_state:	
  4049  0140                     l2339:	
  4050                           ;incstack = 0
  4051                           ; Regs used in _disp_alarm_state: [wreg-fsr0h+status,2+status,0+pclath+cstack]
  4052                           
  4053                           
  4054                           ;alarm.c: 265:     RC5 = 0;
  4055  0140  1283               	bcf	3,5	;RP0=0, select bank0
  4056  0141  1303               	bcf	3,6	;RP1=0, select bank0
  4057  0142  1287               	bcf	7,5	;volatile
  4058  0143                     l2341:	
  4059                           
  4060                           ;alarm.c: 266:     if(al_state & (1 << alarm_no)){
  4061  0143  3001               	movlw	1
  4062  0144  00FD               	movwf	??_disp_alarm_state
  4063  0145  0A5D               	incf	_alarm_no,w
  4064  0146  2949               	goto	u2164
  4065  0147                     u2165:	
  4066  0147  1003               	clrc
  4067  0148  0DFD               	rlf	??_disp_alarm_state,f
  4068  0149                     u2164:	
  4069  0149  3EFF               	addlw	-1
  4070  014A  1D03               	skipz
  4071  014B  2947               	goto	u2165
  4072  014C  087D               	movf	??_disp_alarm_state,w
  4073  014D  0559               	andwf	_al_state,w
  4074  014E  1903               	btfsc	3,2
  4075  014F  2951               	goto	u2171
  4076  0150  2952               	goto	u2170
  4077  0151                     u2171:	
  4078  0151  298B               	goto	l2357
  4079  0152                     u2170:	
  4080  0152                     l2343:	
  4081                           
  4082                           ;alarm.c: 267:         for(char i = 0; i < 30; i++){
  4083  0152  01A0               	clrf	disp_alarm_state@i
  4084  0153                     l2349:	
  4085                           
  4086                           ;alarm.c: 268:             disp_dig(1, ' ');
  4087  0153  3020               	movlw	32
  4088  0154  00FD               	movwf	??_disp_alarm_state
  4089  0155  087D               	movf	??_disp_alarm_state,w
  4090  0156  00F9               	movwf	disp_dig@dig
  4091  0157  3001               	movlw	1
  4092  0158  120A  158A  2340  120A  118A  	fcall	_disp_dig
  4093                           
  4094                           ;alarm.c: 269:             disp_dig(2, ' ');
  4095  015D  3020               	movlw	32
  4096  015E  00FD               	movwf	??_disp_alarm_state
  4097  015F  087D               	movf	??_disp_alarm_state,w
  4098  0160  00F9               	movwf	disp_dig@dig
  4099  0161  3002               	movlw	2
  4100  0162  120A  158A  2340  120A  118A  	fcall	_disp_dig
  4101                           
  4102                           ;alarm.c: 270:             disp_dig(3, 'H');
  4103  0167  3048               	movlw	72
  4104  0168  00FD               	movwf	??_disp_alarm_state
  4105  0169  087D               	movf	??_disp_alarm_state,w
  4106  016A  00F9               	movwf	disp_dig@dig
  4107  016B  3003               	movlw	3
  4108  016C  120A  158A  2340  120A  118A  	fcall	_disp_dig
  4109                           
  4110                           ;alarm.c: 271:             disp_dig(4, 1);
  4111  0171  01F9               	clrf	disp_dig@dig
  4112  0172  0AF9               	incf	disp_dig@dig,f
  4113  0173  3004               	movlw	4
  4114  0174  120A  158A  2340  120A  118A  	fcall	_disp_dig
  4115  0179                     l2351:	
  4116                           
  4117                           ;alarm.c: 272:             real_time_counter();
  4118  0179  120A  158A  2443  120A  118A  	fcall	_real_time_counter
  4119  017E                     l2353:	
  4120                           
  4121                           ;alarm.c: 273:         }
  4122  017E  3001               	movlw	1
  4123  017F  00FD               	movwf	??_disp_alarm_state
  4124  0180  087D               	movf	??_disp_alarm_state,w
  4125  0181  1283               	bcf	3,5	;RP0=0, select bank0
  4126  0182  1303               	bcf	3,6	;RP1=0, select bank0
  4127  0183  07A0               	addwf	disp_alarm_state@i,f
  4128  0184                     l2355:	
  4129  0184  301E               	movlw	30
  4130  0185  0220               	subwf	disp_alarm_state@i,w
  4131  0186  1C03               	skipc
  4132  0187  2989               	goto	u2181
  4133  0188  298A               	goto	u2180
  4134  0189                     u2181:	
  4135  0189  2953               	goto	l2349
  4136  018A                     u2180:	
  4137  018A  29C2               	goto	l300
  4138  018B                     l2357:	
  4139                           
  4140                           ;alarm.c: 276:         for(char i = 0; i < 30; i++){
  4141  018B  01A1               	clrf	disp_alarm_state@i_222
  4142  018C                     l2363:	
  4143                           
  4144                           ;alarm.c: 277:             disp_dig(1, ' ');
  4145  018C  3020               	movlw	32
  4146  018D  00FD               	movwf	??_disp_alarm_state
  4147  018E  087D               	movf	??_disp_alarm_state,w
  4148  018F  00F9               	movwf	disp_dig@dig
  4149  0190  3001               	movlw	1
  4150  0191  120A  158A  2340  120A  118A  	fcall	_disp_dig
  4151                           
  4152                           ;alarm.c: 278:             disp_dig(2, ' ');
  4153  0196  3020               	movlw	32
  4154  0197  00FD               	movwf	??_disp_alarm_state
  4155  0198  087D               	movf	??_disp_alarm_state,w
  4156  0199  00F9               	movwf	disp_dig@dig
  4157  019A  3002               	movlw	2
  4158  019B  120A  158A  2340  120A  118A  	fcall	_disp_dig
  4159                           
  4160                           ;alarm.c: 279:             disp_dig(3, 'L');
  4161  01A0  304C               	movlw	76
  4162  01A1  00FD               	movwf	??_disp_alarm_state
  4163  01A2  087D               	movf	??_disp_alarm_state,w
  4164  01A3  00F9               	movwf	disp_dig@dig
  4165  01A4  3003               	movlw	3
  4166  01A5  120A  158A  2340  120A  118A  	fcall	_disp_dig
  4167                           
  4168                           ;alarm.c: 280:             disp_dig(4, 0);
  4169  01AA  01F9               	clrf	disp_dig@dig
  4170  01AB  3004               	movlw	4
  4171  01AC  120A  158A  2340  120A  118A  	fcall	_disp_dig
  4172  01B1                     l2365:	
  4173                           
  4174                           ;alarm.c: 281:             real_time_counter();
  4175  01B1  120A  158A  2443  120A  118A  	fcall	_real_time_counter
  4176  01B6                     l2367:	
  4177                           
  4178                           ;alarm.c: 282:         }
  4179  01B6  3001               	movlw	1
  4180  01B7  00FD               	movwf	??_disp_alarm_state
  4181  01B8  087D               	movf	??_disp_alarm_state,w
  4182  01B9  1283               	bcf	3,5	;RP0=0, select bank0
  4183  01BA  1303               	bcf	3,6	;RP1=0, select bank0
  4184  01BB  07A1               	addwf	disp_alarm_state@i_222,f
  4185  01BC                     l2369:	
  4186  01BC  301E               	movlw	30
  4187  01BD  0221               	subwf	disp_alarm_state@i_222,w
  4188  01BE  1C03               	skipc
  4189  01BF  29C1               	goto	u2191
  4190  01C0  29C2               	goto	u2190
  4191  01C1                     u2191:	
  4192  01C1  298C               	goto	l2363
  4193  01C2                     u2190:	
  4194  01C2                     l300:	
  4195                           ;alarm.c: 283:     }
  4196                           
  4197                           
  4198                           ;alarm.c: 284:     RC5 = 1;
  4199  01C2  1687               	bsf	7,5	;volatile
  4200  01C3                     l303:	
  4201  01C3  0008               	return
  4202  01C4                     __end_of_disp_alarm_state:	
  4203                           
  4204                           	psect	text8
  4205  0C7E                     __ptext8:	
  4206 ;; *************** function _disp_alarm_no *****************
  4207 ;; Defined at:
  4208 ;;		line 252 in file "alarm.c"
  4209 ;; Parameters:    Size  Location     Type
  4210 ;;		None
  4211 ;; Auto vars:     Size  Location     Type
  4212 ;;  i               1    0[BANK0 ] unsigned char 
  4213 ;; Return value:  Size  Location     Type
  4214 ;;                  1    wreg      void 
  4215 ;; Registers used:
  4216 ;;		wreg, fsr0l, fsr0h, status,2, status,0, pclath, cstack
  4217 ;; Tracked objects:
  4218 ;;		On entry : 0/0
  4219 ;;		On exit  : 0/0
  4220 ;;		Unchanged: 0/0
  4221 ;; Data sizes:     COMMON   BANK0   BANK1   BANK3   BANK2
  4222 ;;      Params:         0       0       0       0       0
  4223 ;;      Locals:         0       1       0       0       0
  4224 ;;      Temps:          1       0       0       0       0
  4225 ;;      Totals:         1       1       0       0       0
  4226 ;;Total ram usage:        2 bytes
  4227 ;; Hardware stack levels used:    1
  4228 ;; Hardware stack levels required when called:    2
  4229 ;; This function calls:
  4230 ;;		_disp_dig
  4231 ;;		_real_time_counter
  4232 ;; This function is called by:
  4233 ;;		_disp_alarm
  4234 ;; This function uses a non-reentrant model
  4235 ;;
  4236                           
  4237                           
  4238                           ;psect for function _disp_alarm_no
  4239  0C7E                     _disp_alarm_no:	
  4240  0C7E                     l2323:	
  4241                           ;incstack = 0
  4242                           ; Regs used in _disp_alarm_no: [wreg-fsr0h+status,2+status,0+pclath+cstack]
  4243                           
  4244                           
  4245                           ;alarm.c: 253:     RC5 = 0;
  4246  0C7E  1283               	bcf	3,5	;RP0=0, select bank0
  4247  0C7F  1303               	bcf	3,6	;RP1=0, select bank0
  4248  0C80  1287               	bcf	7,5	;volatile
  4249  0C81                     l2325:	
  4250                           
  4251                           ;alarm.c: 254:     for(char i = 0; i < 30; i++){
  4252  0C81  01A0               	clrf	disp_alarm_no@i
  4253  0C82                     l2331:	
  4254                           
  4255                           ;alarm.c: 255:         disp_dig(1, 'A');
  4256  0C82  3041               	movlw	65
  4257  0C83  00FD               	movwf	??_disp_alarm_no
  4258  0C84  087D               	movf	??_disp_alarm_no,w
  4259  0C85  00F9               	movwf	disp_dig@dig
  4260  0C86  3001               	movlw	1
  4261  0C87  120A  158A  2340  120A  158A  	fcall	_disp_dig
  4262                           
  4263                           ;alarm.c: 256:         disp_dig(2, 'L');
  4264  0C8C  304C               	movlw	76
  4265  0C8D  00FD               	movwf	??_disp_alarm_no
  4266  0C8E  087D               	movf	??_disp_alarm_no,w
  4267  0C8F  00F9               	movwf	disp_dig@dig
  4268  0C90  3002               	movlw	2
  4269  0C91  120A  158A  2340  120A  158A  	fcall	_disp_dig
  4270                           
  4271                           ;alarm.c: 257:         disp_dig(3, 0);
  4272  0C96  01F9               	clrf	disp_dig@dig
  4273  0C97  3003               	movlw	3
  4274  0C98  120A  158A  2340  120A  158A  	fcall	_disp_dig
  4275                           
  4276                           ;alarm.c: 258:         disp_dig(4, alarm_no+1);
  4277  0C9D  1283               	bcf	3,5	;RP0=0, select bank0
  4278  0C9E  1303               	bcf	3,6	;RP1=0, select bank0
  4279  0C9F  085D               	movf	_alarm_no,w
  4280  0CA0  3E01               	addlw	1
  4281  0CA1  00FD               	movwf	??_disp_alarm_no
  4282  0CA2  087D               	movf	??_disp_alarm_no,w
  4283  0CA3  00F9               	movwf	disp_dig@dig
  4284  0CA4  3004               	movlw	4
  4285  0CA5  120A  158A  2340  120A  158A  	fcall	_disp_dig
  4286  0CAA                     l2333:	
  4287                           
  4288                           ;alarm.c: 259:         real_time_counter();
  4289  0CAA  120A  158A  2443  120A  158A  	fcall	_real_time_counter
  4290  0CAF                     l2335:	
  4291                           
  4292                           ;alarm.c: 260:     }
  4293  0CAF  3001               	movlw	1
  4294  0CB0  00FD               	movwf	??_disp_alarm_no
  4295  0CB1  087D               	movf	??_disp_alarm_no,w
  4296  0CB2  1283               	bcf	3,5	;RP0=0, select bank0
  4297  0CB3  1303               	bcf	3,6	;RP1=0, select bank0
  4298  0CB4  07A0               	addwf	disp_alarm_no@i,f
  4299  0CB5                     l2337:	
  4300  0CB5  301E               	movlw	30
  4301  0CB6  0220               	subwf	disp_alarm_no@i,w
  4302  0CB7  1C03               	skipc
  4303  0CB8  2CBA               	goto	u2151
  4304  0CB9  2CBB               	goto	u2150
  4305  0CBA                     u2151:	
  4306  0CBA  2C82               	goto	l2331
  4307  0CBB                     u2150:	
  4308  0CBB                     l293:	
  4309                           
  4310                           ;alarm.c: 261:     RC5 = 1;
  4311  0CBB  1687               	bsf	7,5	;volatile
  4312  0CBC                     l294:	
  4313  0CBC  0008               	return
  4314  0CBD                     __end_of_disp_alarm_no:	
  4315                           
  4316                           	psect	text9
  4317  0C43                     __ptext9:	
  4318 ;; *************** function _real_time_counter *****************
  4319 ;; Defined at:
  4320 ;;		line 71 in file "alarm.c"
  4321 ;; Parameters:    Size  Location     Type
  4322 ;;		None
  4323 ;; Auto vars:     Size  Location     Type
  4324 ;;		None
  4325 ;; Return value:  Size  Location     Type
  4326 ;;                  1    wreg      void 
  4327 ;; Registers used:
  4328 ;;		wreg, status,2, status,0
  4329 ;; Tracked objects:
  4330 ;;		On entry : 0/0
  4331 ;;		On exit  : 0/0
  4332 ;;		Unchanged: 0/0
  4333 ;; Data sizes:     COMMON   BANK0   BANK1   BANK3   BANK2
  4334 ;;      Params:         0       0       0       0       0
  4335 ;;      Locals:         0       0       0       0       0
  4336 ;;      Temps:          1       0       0       0       0
  4337 ;;      Totals:         1       0       0       0       0
  4338 ;;Total ram usage:        1 bytes
  4339 ;; Hardware stack levels used:    1
  4340 ;; This function calls:
  4341 ;;		Nothing
  4342 ;; This function is called by:
  4343 ;;		_buzz
  4344 ;;		_set_time
  4345 ;;		_disp_alarm_no
  4346 ;;		_disp_alarm_state
  4347 ;;		_main
  4348 ;; This function uses a non-reentrant model
  4349 ;;
  4350                           
  4351                           
  4352                           ;psect for function _real_time_counter
  4353  0C43                     _real_time_counter:	
  4354  0C43                     l2251:	
  4355                           ;incstack = 0
  4356                           ; Regs used in _real_time_counter: [wreg+status,2+status,0]
  4357                           
  4358                           
  4359                           ;alarm.c: 75:     if(TMR1 >= 62500){
  4360  0C43  30F4               	movlw	244
  4361  0C44  1283               	bcf	3,5	;RP0=0, select bank0
  4362  0C45  1303               	bcf	3,6	;RP1=0, select bank0
  4363  0C46  020F               	subwf	15,w	;volatile
  4364  0C47  3024               	movlw	36
  4365  0C48  1903               	skipnz
  4366  0C49  020E               	subwf	14,w	;volatile
  4367  0C4A  1C03               	skipc
  4368  0C4B  2C4D               	goto	u2061
  4369  0C4C  2C4E               	goto	u2060
  4370  0C4D                     u2061:	
  4371  0C4D  2C7D               	goto	l195
  4372  0C4E                     u2060:	
  4373  0C4E                     l2253:	
  4374                           
  4375                           ;alarm.c: 76:         TMR1 = 0;
  4376  0C4E  018E               	clrf	14	;volatile
  4377  0C4F  018F               	clrf	15	;volatile
  4378  0C50                     l2255:	
  4379                           
  4380                           ;alarm.c: 77:         sec_count += 1;
  4381  0C50  3001               	movlw	1
  4382  0C51  00F0               	movwf	??_real_time_counter
  4383  0C52  0870               	movf	??_real_time_counter,w
  4384  0C53  07D7               	addwf	_sec_count,f
  4385  0C54                     l2257:	
  4386                           
  4387                           ;alarm.c: 78:         if(sec_count == 10){
  4388  0C54  300A               	movlw	10
  4389  0C55  0657               	xorwf	_sec_count,w
  4390  0C56  1D03               	btfss	3,2
  4391  0C57  2C59               	goto	u2071
  4392  0C58  2C5A               	goto	u2070
  4393  0C59                     u2071:	
  4394  0C59  2C7D               	goto	l195
  4395  0C5A                     u2070:	
  4396  0C5A                     l2259:	
  4397                           
  4398                           ;alarm.c: 79:             sec_count = 0;
  4399  0C5A  01D7               	clrf	_sec_count
  4400  0C5B                     l2261:	
  4401                           
  4402                           ;alarm.c: 80:             sec += 1;
  4403  0C5B  3001               	movlw	1
  4404  0C5C  00F0               	movwf	??_real_time_counter
  4405  0C5D  0870               	movf	??_real_time_counter,w
  4406  0C5E  07DA               	addwf	_sec,f
  4407  0C5F                     l2263:	
  4408                           
  4409                           ;alarm.c: 81:             if(sec == 60){
  4410  0C5F  303C               	movlw	60
  4411  0C60  065A               	xorwf	_sec,w
  4412  0C61  1D03               	btfss	3,2
  4413  0C62  2C64               	goto	u2081
  4414  0C63  2C65               	goto	u2080
  4415  0C64                     u2081:	
  4416  0C64  2C7D               	goto	l195
  4417  0C65                     u2080:	
  4418  0C65                     l2265:	
  4419                           
  4420                           ;alarm.c: 82:                 sec = 0;
  4421  0C65  01DA               	clrf	_sec
  4422  0C66                     l2267:	
  4423                           
  4424                           ;alarm.c: 83:                 min++;
  4425  0C66  3001               	movlw	1
  4426  0C67  00F0               	movwf	??_real_time_counter
  4427  0C68  0870               	movf	??_real_time_counter,w
  4428  0C69  07DB               	addwf	_min,f
  4429  0C6A                     l2269:	
  4430                           
  4431                           ;alarm.c: 84:                 if(min == 60){
  4432  0C6A  303C               	movlw	60
  4433  0C6B  065B               	xorwf	_min,w
  4434  0C6C  1D03               	btfss	3,2
  4435  0C6D  2C6F               	goto	u2091
  4436  0C6E  2C70               	goto	u2090
  4437  0C6F                     u2091:	
  4438  0C6F  2C7D               	goto	l195
  4439  0C70                     u2090:	
  4440  0C70                     l2271:	
  4441                           
  4442                           ;alarm.c: 85:                     min = 0;
  4443  0C70  01DB               	clrf	_min
  4444  0C71                     l2273:	
  4445                           
  4446                           ;alarm.c: 86:                     hr++;
  4447  0C71  3001               	movlw	1
  4448  0C72  00F0               	movwf	??_real_time_counter
  4449  0C73  0870               	movf	??_real_time_counter,w
  4450  0C74  07DC               	addwf	_hr,f
  4451  0C75                     l2275:	
  4452                           
  4453                           ;alarm.c: 87:                     if(hr == 24) hr = 0;
  4454  0C75  3018               	movlw	24
  4455  0C76  065C               	xorwf	_hr,w
  4456  0C77  1D03               	btfss	3,2
  4457  0C78  2C7A               	goto	u2101
  4458  0C79  2C7B               	goto	u2100
  4459  0C7A                     u2101:	
  4460  0C7A  2C7D               	goto	l191
  4461  0C7B                     u2100:	
  4462  0C7B                     l2277:	
  4463  0C7B  01DC               	clrf	_hr
  4464  0C7C  2C7D               	goto	l195
  4465  0C7D                     l191:	
  4466                           ;alarm.c: 90:         }
  4467                           
  4468  0C7D                     l195:	
  4469  0C7D  0008               	return
  4470  0C7E                     __end_of_real_time_counter:	
  4471                           
  4472                           	psect	text10
  4473  0B40                     __ptext10:	
  4474 ;; *************** function _disp_dig *****************
  4475 ;; Defined at:
  4476 ;;		line 33 in file "alarm.c"
  4477 ;; Parameters:    Size  Location     Type
  4478 ;;  n               1    wreg     unsigned char 
  4479 ;;  dig             1    9[COMMON] unsigned char 
  4480 ;; Auto vars:     Size  Location     Type
  4481 ;;  n               1   12[COMMON] unsigned char 
  4482 ;; Return value:  Size  Location     Type
  4483 ;;                  1    wreg      void 
  4484 ;; Registers used:
  4485 ;;		wreg, fsr0l, fsr0h, status,2, status,0, pclath, cstack
  4486 ;; Tracked objects:
  4487 ;;		On entry : 0/0
  4488 ;;		On exit  : 0/0
  4489 ;;		Unchanged: 0/0
  4490 ;; Data sizes:     COMMON   BANK0   BANK1   BANK3   BANK2
  4491 ;;      Params:         1       0       0       0       0
  4492 ;;      Locals:         1       0       0       0       0
  4493 ;;      Temps:          2       0       0       0       0
  4494 ;;      Totals:         4       0       0       0       0
  4495 ;;Total ram usage:        4 bytes
  4496 ;; Hardware stack levels used:    1
  4497 ;; Hardware stack levels required when called:    1
  4498 ;; This function calls:
  4499 ;;		_disp_cc
  4500 ;; This function is called by:
  4501 ;;		_disp
  4502 ;;		_set_time
  4503 ;;		_disp_alarm_no
  4504 ;;		_disp_alarm_state
  4505 ;; This function uses a non-reentrant model
  4506 ;;
  4507                           
  4508                           
  4509                           ;psect for function _disp_dig
  4510  0B40                     _disp_dig:	
  4511                           
  4512                           ;incstack = 0
  4513                           ; Regs used in _disp_dig: [wreg-fsr0h+status,2+status,0+pclath+cstack]
  4514                           ;disp_dig@n stored from wreg
  4515  0B40  00FC               	movwf	disp_dig@n
  4516  0B41                     l2121:	
  4517                           
  4518                           ;alarm.c: 34:     PORTA = ~(1 << (n-1));
  4519  0B41  3001               	movlw	1
  4520  0B42  00FA               	movwf	??_disp_dig
  4521  0B43  087C               	movf	disp_dig@n,w
  4522  0B44  3EFF               	addlw	-1
  4523  0B45  3E01               	addlw	1
  4524  0B46  2B49               	goto	u1784
  4525  0B47                     u1785:	
  4526  0B47  1003               	clrc
  4527  0B48  0DFA               	rlf	??_disp_dig,f
  4528  0B49                     u1784:	
  4529  0B49  3EFF               	addlw	-1
  4530  0B4A  1D03               	skipz
  4531  0B4B  2B47               	goto	u1785
  4532  0B4C  087A               	movf	??_disp_dig,w
  4533  0B4D  3AFF               	xorlw	255
  4534  0B4E  1283               	bcf	3,5	;RP0=0, select bank0
  4535  0B4F  1303               	bcf	3,6	;RP1=0, select bank0
  4536  0B50  0085               	movwf	5	;volatile
  4537  0B51                     l2123:	
  4538                           
  4539                           ;alarm.c: 35:     PORTB = disp_cc(dig);
  4540  0B51  0879               	movf	disp_dig@dig,w
  4541  0B52  120A  118A  21C4  120A  158A  	fcall	_disp_cc
  4542  0B57  1283               	bcf	3,5	;RP0=0, select bank0
  4543  0B58  1303               	bcf	3,6	;RP1=0, select bank0
  4544  0B59  0086               	movwf	6	;volatile
  4545  0B5A                     l2125:	
  4546                           
  4547                           ;alarm.c: 36:     _delay((unsigned long)((5)*(20000000/4000.0)));
  4548  0B5A  3021               	movlw	33
  4549  0B5B  00FB               	movwf	??_disp_dig+1
  4550  0B5C  3076               	movlw	118
  4551  0B5D  00FA               	movwf	??_disp_dig
  4552  0B5E                     u3577:	
  4553  0B5E  0BFA               	decfsz	??_disp_dig,f
  4554  0B5F  2B5E               	goto	u3577
  4555  0B60  0BFB               	decfsz	??_disp_dig+1,f
  4556  0B61  2B5E               	goto	u3577
  4557  0B62  0000               	nop
  4558  0B63                     l177:	
  4559  0B63  0008               	return
  4560  0B64                     __end_of_disp_dig:	
  4561                           
  4562                           	psect	text11
  4563  01C4                     __ptext11:	
  4564 ;; *************** function _disp_cc *****************
  4565 ;; Defined at:
  4566 ;;		line 10 in file "../lib\7seg.h"
  4567 ;; Parameters:    Size  Location     Type
  4568 ;;  digit           1    wreg     unsigned char 
  4569 ;; Auto vars:     Size  Location     Type
  4570 ;;  digit           1    2[COMMON] unsigned char 
  4571 ;;  PORT            1    3[COMMON] unsigned char 
  4572 ;; Return value:  Size  Location     Type
  4573 ;;                  1    wreg      unsigned char 
  4574 ;; Registers used:
  4575 ;;		wreg, fsr0l, fsr0h, status,2, status,0
  4576 ;; Tracked objects:
  4577 ;;		On entry : 0/0
  4578 ;;		On exit  : 0/0
  4579 ;;		Unchanged: 0/0
  4580 ;; Data sizes:     COMMON   BANK0   BANK1   BANK3   BANK2
  4581 ;;      Params:         0       0       0       0       0
  4582 ;;      Locals:         2       0       0       0       0
  4583 ;;      Temps:          2       0       0       0       0
  4584 ;;      Totals:         4       0       0       0       0
  4585 ;;Total ram usage:        4 bytes
  4586 ;; Hardware stack levels used:    1
  4587 ;; This function calls:
  4588 ;;		Nothing
  4589 ;; This function is called by:
  4590 ;;		_disp_dig
  4591 ;; This function uses a non-reentrant model
  4592 ;;
  4593                           
  4594                           
  4595                           ;psect for function _disp_cc
  4596  01C4                     _disp_cc:	
  4597                           
  4598                           ;incstack = 0
  4599                           ; Regs used in _disp_cc: [wreg-fsr0h+status,2+status,0]
  4600                           ;disp_cc@digit stored from wreg
  4601  01C4  00F2               	movwf	disp_cc@digit
  4602  01C5                     l2069:	
  4603                           
  4604                           ;../lib\7seg.h: 11:     unsigned char PORT;;../lib\7seg.h: 12:     switch(digit){
  4605  01C5  2A1D               	goto	l2109
  4606  01C6                     l2071:	
  4607  01C6  303F               	movlw	63
  4608  01C7  00F0               	movwf	??_disp_cc
  4609  01C8  0870               	movf	??_disp_cc,w
  4610  01C9  00F3               	movwf	disp_cc@PORT
  4611                           
  4612                           ;../lib\7seg.h: 14:         break;
  4613  01CA  2A5A               	goto	l2111
  4614  01CB                     l2073:	
  4615  01CB  3006               	movlw	6
  4616  01CC  00F0               	movwf	??_disp_cc
  4617  01CD  0870               	movf	??_disp_cc,w
  4618  01CE  00F3               	movwf	disp_cc@PORT
  4619                           
  4620                           ;../lib\7seg.h: 16:         break;
  4621  01CF  2A5A               	goto	l2111
  4622  01D0                     l2075:	
  4623  01D0  305B               	movlw	91
  4624  01D1  00F0               	movwf	??_disp_cc
  4625  01D2  0870               	movf	??_disp_cc,w
  4626  01D3  00F3               	movwf	disp_cc@PORT
  4627                           
  4628                           ;../lib\7seg.h: 18:         break;
  4629  01D4  2A5A               	goto	l2111
  4630  01D5                     l2077:	
  4631  01D5  304F               	movlw	79
  4632  01D6  00F0               	movwf	??_disp_cc
  4633  01D7  0870               	movf	??_disp_cc,w
  4634  01D8  00F3               	movwf	disp_cc@PORT
  4635                           
  4636                           ;../lib\7seg.h: 20:         break;
  4637  01D9  2A5A               	goto	l2111
  4638  01DA                     l2079:	
  4639  01DA  3066               	movlw	102
  4640  01DB  00F0               	movwf	??_disp_cc
  4641  01DC  0870               	movf	??_disp_cc,w
  4642  01DD  00F3               	movwf	disp_cc@PORT
  4643                           
  4644                           ;../lib\7seg.h: 22:         break;
  4645  01DE  2A5A               	goto	l2111
  4646  01DF                     l2081:	
  4647  01DF  306D               	movlw	109
  4648  01E0  00F0               	movwf	??_disp_cc
  4649  01E1  0870               	movf	??_disp_cc,w
  4650  01E2  00F3               	movwf	disp_cc@PORT
  4651                           
  4652                           ;../lib\7seg.h: 24:         break;
  4653  01E3  2A5A               	goto	l2111
  4654  01E4                     l2083:	
  4655  01E4  307D               	movlw	125
  4656  01E5  00F0               	movwf	??_disp_cc
  4657  01E6  0870               	movf	??_disp_cc,w
  4658  01E7  00F3               	movwf	disp_cc@PORT
  4659                           
  4660                           ;../lib\7seg.h: 26:         break;
  4661  01E8  2A5A               	goto	l2111
  4662  01E9                     l2085:	
  4663  01E9  3007               	movlw	7
  4664  01EA  00F0               	movwf	??_disp_cc
  4665  01EB  0870               	movf	??_disp_cc,w
  4666  01EC  00F3               	movwf	disp_cc@PORT
  4667                           
  4668                           ;../lib\7seg.h: 28:         break;
  4669  01ED  2A5A               	goto	l2111
  4670  01EE                     l2087:	
  4671  01EE  307F               	movlw	127
  4672  01EF  00F0               	movwf	??_disp_cc
  4673  01F0  0870               	movf	??_disp_cc,w
  4674  01F1  00F3               	movwf	disp_cc@PORT
  4675                           
  4676                           ;../lib\7seg.h: 30:         break;
  4677  01F2  2A5A               	goto	l2111
  4678  01F3                     l2089:	
  4679  01F3  306F               	movlw	111
  4680  01F4  00F0               	movwf	??_disp_cc
  4681  01F5  0870               	movf	??_disp_cc,w
  4682  01F6  00F3               	movwf	disp_cc@PORT
  4683                           
  4684                           ;../lib\7seg.h: 32:         break;
  4685  01F7  2A5A               	goto	l2111
  4686  01F8                     l2091:	
  4687  01F8  3080               	movlw	128
  4688  01F9  00F0               	movwf	??_disp_cc
  4689  01FA  0870               	movf	??_disp_cc,w
  4690  01FB  00F3               	movwf	disp_cc@PORT
  4691                           
  4692                           ;../lib\7seg.h: 34:         break;
  4693  01FC  2A5A               	goto	l2111
  4694  01FD                     l2093:	
  4695  01FD  3077               	movlw	119
  4696  01FE  00F0               	movwf	??_disp_cc
  4697  01FF  0870               	movf	??_disp_cc,w
  4698  0200  00F3               	movwf	disp_cc@PORT
  4699                           
  4700                           ;../lib\7seg.h: 36:         break;
  4701  0201  2A5A               	goto	l2111
  4702  0202                     l2095:	
  4703  0202  307C               	movlw	124
  4704  0203  00F0               	movwf	??_disp_cc
  4705  0204  0870               	movf	??_disp_cc,w
  4706  0205  00F3               	movwf	disp_cc@PORT
  4707                           
  4708                           ;../lib\7seg.h: 38:         break;
  4709  0206  2A5A               	goto	l2111
  4710  0207                     l2097:	
  4711  0207  3079               	movlw	121
  4712  0208  00F0               	movwf	??_disp_cc
  4713  0209  0870               	movf	??_disp_cc,w
  4714  020A  00F3               	movwf	disp_cc@PORT
  4715                           
  4716                           ;../lib\7seg.h: 40:         break;
  4717  020B  2A5A               	goto	l2111
  4718  020C                     l2099:	
  4719  020C  3076               	movlw	118
  4720  020D  00F0               	movwf	??_disp_cc
  4721  020E  0870               	movf	??_disp_cc,w
  4722  020F  00F3               	movwf	disp_cc@PORT
  4723                           
  4724                           ;../lib\7seg.h: 42:         break;
  4725  0210  2A5A               	goto	l2111
  4726  0211                     l2101:	
  4727  0211  3038               	movlw	56
  4728  0212  00F0               	movwf	??_disp_cc
  4729  0213  0870               	movf	??_disp_cc,w
  4730  0214  00F3               	movwf	disp_cc@PORT
  4731                           
  4732                           ;../lib\7seg.h: 44:         break;
  4733  0215  2A5A               	goto	l2111
  4734  0216                     l2103:	
  4735  0216  3031               	movlw	49
  4736  0217  00F0               	movwf	??_disp_cc
  4737  0218  0870               	movf	??_disp_cc,w
  4738  0219  00F3               	movwf	disp_cc@PORT
  4739                           
  4740                           ;../lib\7seg.h: 46:         break;
  4741  021A  2A5A               	goto	l2111
  4742  021B                     l2105:	
  4743  021B  01F3               	clrf	disp_cc@PORT
  4744                           
  4745                           ;../lib\7seg.h: 48:         break;
  4746  021C  2A5A               	goto	l2111
  4747  021D                     l2109:	
  4748  021D  0872               	movf	disp_cc@digit,w
  4749  021E  00F0               	movwf	??_disp_cc
  4750  021F  01F1               	clrf	??_disp_cc+1
  4751                           
  4752                           ; Switch on 2 bytes has been partitioned into a top level switch of size 1, and 1 sub-sw
      +                          itches
  4753                           ; Switch size 1, requested type "simple"
  4754                           ; Number of cases is 1, Range of values is 0 to 0
  4755                           ; switch strategies available:
  4756                           ; Name         Instructions Cycles
  4757                           ; simple_byte            4     3 (average)
  4758                           ; direct_byte           11     8 (fixed)
  4759                           ; jumptable            260     6 (fixed)
  4760                           ;	Chosen strategy is simple_byte
  4761  0220  0871               	movf	??_disp_cc+1,w
  4762  0221  3A00               	xorlw	0	; case 0
  4763  0222  1903               	skipnz
  4764  0223  2A25               	goto	l3073
  4765  0224  2A1B               	goto	l2105
  4766  0225                     l3073:	
  4767                           
  4768                           ; Switch size 1, requested type "simple"
  4769                           ; Number of cases is 17, Range of values is 0 to 98
  4770                           ; switch strategies available:
  4771                           ; Name         Instructions Cycles
  4772                           ; simple_byte           52    27 (average)
  4773                           ; jumptable            260     6 (fixed)
  4774                           ;	Chosen strategy is simple_byte
  4775  0225  0870               	movf	??_disp_cc,w
  4776  0226  3A00               	xorlw	0	; case 0
  4777  0227  1903               	skipnz
  4778  0228  29C6               	goto	l2071
  4779  0229  3A01               	xorlw	1	; case 1
  4780  022A  1903               	skipnz
  4781  022B  29CB               	goto	l2073
  4782  022C  3A03               	xorlw	3	; case 2
  4783  022D  1903               	skipnz
  4784  022E  29D0               	goto	l2075
  4785  022F  3A01               	xorlw	1	; case 3
  4786  0230  1903               	skipnz
  4787  0231  29D5               	goto	l2077
  4788  0232  3A07               	xorlw	7	; case 4
  4789  0233  1903               	skipnz
  4790  0234  29DA               	goto	l2079
  4791  0235  3A01               	xorlw	1	; case 5
  4792  0236  1903               	skipnz
  4793  0237  29DF               	goto	l2081
  4794  0238  3A03               	xorlw	3	; case 6
  4795  0239  1903               	skipnz
  4796  023A  29E4               	goto	l2083
  4797  023B  3A01               	xorlw	1	; case 7
  4798  023C  1903               	skipnz
  4799  023D  29E9               	goto	l2085
  4800  023E  3A0F               	xorlw	15	; case 8
  4801  023F  1903               	skipnz
  4802  0240  29EE               	goto	l2087
  4803  0241  3A01               	xorlw	1	; case 9
  4804  0242  1903               	skipnz
  4805  0243  29F3               	goto	l2089
  4806  0244  3A27               	xorlw	39	; case 46
  4807  0245  1903               	skipnz
  4808  0246  29F8               	goto	l2091
  4809  0247  3A6F               	xorlw	111	; case 65
  4810  0248  1903               	skipnz
  4811  0249  29FD               	goto	l2093
  4812  024A  3A04               	xorlw	4	; case 69
  4813  024B  1903               	skipnz
  4814  024C  2A07               	goto	l2097
  4815  024D  3A0D               	xorlw	13	; case 72
  4816  024E  1903               	skipnz
  4817  024F  2A0C               	goto	l2099
  4818  0250  3A04               	xorlw	4	; case 76
  4819  0251  1903               	skipnz
  4820  0252  2A11               	goto	l2101
  4821  0253  3A18               	xorlw	24	; case 84
  4822  0254  1903               	skipnz
  4823  0255  2A16               	goto	l2103
  4824  0256  3A36               	xorlw	54	; case 98
  4825  0257  1903               	skipnz
  4826  0258  2A02               	goto	l2095
  4827  0259  2A1B               	goto	l2105
  4828  025A                     l2111:	
  4829                           
  4830                           ;../lib\7seg.h: 50:     return PORT;
  4831  025A  0873               	movf	disp_cc@PORT,w
  4832  025B                     l79:	
  4833  025B  0008               	return
  4834  025C                     __end_of_disp_cc:	
  4835                           
  4836                           	psect	text12
  4837  0B06                     __ptext12:	
  4838 ;; *************** function _data_init *****************
  4839 ;; Defined at:
  4840 ;;		line 14 in file "../lib\eeprom.h"
  4841 ;; Parameters:    Size  Location     Type
  4842 ;;		None
  4843 ;; Auto vars:     Size  Location     Type
  4844 ;;		None
  4845 ;; Return value:  Size  Location     Type
  4846 ;;                  1    wreg      void 
  4847 ;; Registers used:
  4848 ;;		None
  4849 ;; Tracked objects:
  4850 ;;		On entry : 0/0
  4851 ;;		On exit  : 0/0
  4852 ;;		Unchanged: 0/0
  4853 ;; Data sizes:     COMMON   BANK0   BANK1   BANK3   BANK2
  4854 ;;      Params:         0       0       0       0       0
  4855 ;;      Locals:         0       0       0       0       0
  4856 ;;      Temps:          0       0       0       0       0
  4857 ;;      Totals:         0       0       0       0       0
  4858 ;;Total ram usage:        0 bytes
  4859 ;; Hardware stack levels used:    1
  4860 ;; This function calls:
  4861 ;;		Nothing
  4862 ;; This function is called by:
  4863 ;;		_main
  4864 ;; This function uses a non-reentrant model
  4865 ;;
  4866                           
  4867                           
  4868                           ;psect for function _data_init
  4869  0B06                     _data_init:	
  4870  0B06                     l2385:	
  4871                           ;incstack = 0
  4872                           ; Regs used in _data_init: []
  4873                           
  4874                           
  4875                           ;../lib\eeprom.h: 15:     PIR2bits.EEIF = 0;
  4876  0B06  1283               	bcf	3,5	;RP0=0, select bank0
  4877  0B07  1303               	bcf	3,6	;RP1=0, select bank0
  4878  0B08  120D               	bcf	13,4	;volatile
  4879                           
  4880                           ;../lib\eeprom.h: 16:     EECON1bits.EEPGD = 0;
  4881  0B09  1683               	bsf	3,5	;RP0=1, select bank3
  4882  0B0A  1703               	bsf	3,6	;RP1=1, select bank3
  4883  0B0B  138C               	bcf	12,7	;volsfr
  4884                           
  4885                           ;../lib\eeprom.h: 17:     EECON1bits.WREN = 0;
  4886  0B0C  110C               	bcf	12,2	;volsfr
  4887  0B0D                     l108:	
  4888  0B0D  0008               	return
  4889  0B0E                     __end_of_data_init:	
  4890                           
  4891                           	psect	text13
  4892  0BDA                     __ptext13:	
  4893 ;; *************** function _data_clear *****************
  4894 ;; Defined at:
  4895 ;;		line 68 in file "../lib\eeprom.h"
  4896 ;; Parameters:    Size  Location     Type
  4897 ;;  start           1    wreg     unsigned char 
  4898 ;;  end             1    5[COMMON] unsigned char 
  4899 ;; Auto vars:     Size  Location     Type
  4900 ;;  start           1    7[COMMON] unsigned char 
  4901 ;;  addr            1    8[COMMON] unsigned char 
  4902 ;; Return value:  Size  Location     Type
  4903 ;;                  1    wreg      void 
  4904 ;; Registers used:
  4905 ;;		wreg, status,2, status,0, pclath, cstack
  4906 ;; Tracked objects:
  4907 ;;		On entry : 0/0
  4908 ;;		On exit  : 0/0
  4909 ;;		Unchanged: 0/0
  4910 ;; Data sizes:     COMMON   BANK0   BANK1   BANK3   BANK2
  4911 ;;      Params:         1       0       0       0       0
  4912 ;;      Locals:         2       0       0       0       0
  4913 ;;      Temps:          1       0       0       0       0
  4914 ;;      Totals:         4       0       0       0       0
  4915 ;;Total ram usage:        4 bytes
  4916 ;; Hardware stack levels used:    1
  4917 ;; Hardware stack levels required when called:    2
  4918 ;; This function calls:
  4919 ;;		_data_write
  4920 ;;		_delay
  4921 ;; This function is called by:
  4922 ;;		_main
  4923 ;; This function uses a non-reentrant model
  4924 ;;
  4925                           
  4926                           
  4927                           ;psect for function _data_clear
  4928  0BDA                     _data_clear:	
  4929                           
  4930                           ;incstack = 0
  4931                           ; Regs used in _data_clear: [wreg+status,2+status,0+pclath+cstack]
  4932                           ;data_clear@start stored from wreg
  4933  0BDA  00F7               	movwf	data_clear@start
  4934  0BDB                     l2387:	
  4935                           
  4936                           ;../lib\eeprom.h: 69:     unsigned char addr;;../lib\eeprom.h: 70:     if(end == 0xFF){
  4937  0BDB  0A75               	incf	data_clear@end,w
  4938  0BDC  1D03               	btfss	3,2
  4939  0BDD  2BDF               	goto	u2241
  4940  0BDE  2BE0               	goto	u2240
  4941  0BDF                     u2241:	
  4942  0BDF  2BEE               	goto	l2393
  4943  0BE0                     u2240:	
  4944  0BE0                     l2389:	
  4945                           
  4946                           ;../lib\eeprom.h: 71:         end = 0xFE;
  4947  0BE0  30FE               	movlw	254
  4948  0BE1  00F6               	movwf	??_data_clear
  4949  0BE2  0876               	movf	??_data_clear,w
  4950  0BE3  00F5               	movwf	data_clear@end
  4951  0BE4                     l2391:	
  4952                           
  4953                           ;../lib\eeprom.h: 72:         data_write(0xFF, 0xFF);
  4954  0BE4  30FF               	movlw	255
  4955  0BE5  00F6               	movwf	??_data_clear
  4956  0BE6  0876               	movf	??_data_clear,w
  4957  0BE7  00F2               	movwf	data_write@data
  4958  0BE8  30FF               	movlw	255
  4959  0BE9  120A  158A  24BD  120A  158A  	fcall	_data_write
  4960  0BEE                     l2393:	
  4961                           
  4962                           ;../lib\eeprom.h: 74:     for(addr = start; addr <= end; addr++){
  4963  0BEE  0877               	movf	data_clear@start,w
  4964  0BEF  00F6               	movwf	??_data_clear
  4965  0BF0  0876               	movf	??_data_clear,w
  4966  0BF1  00F8               	movwf	data_clear@addr
  4967  0BF2  2C06               	goto	l2399
  4968  0BF3                     l2395:	
  4969                           
  4970                           ;../lib\eeprom.h: 75:         data_write(addr, 0xFF);
  4971  0BF3  30FF               	movlw	255
  4972  0BF4  00F6               	movwf	??_data_clear
  4973  0BF5  0876               	movf	??_data_clear,w
  4974  0BF6  00F2               	movwf	data_write@data
  4975  0BF7  0878               	movf	data_clear@addr,w
  4976  0BF8  120A  158A  24BD  120A  158A  	fcall	_data_write
  4977                           
  4978                           ;../lib\eeprom.h: 76:         delay();
  4979  0BFD  120A  158A  2316  120A  158A  	fcall	_delay
  4980  0C02                     l2397:	
  4981                           
  4982                           ;../lib\eeprom.h: 77:     }
  4983  0C02  3001               	movlw	1
  4984  0C03  00F6               	movwf	??_data_clear
  4985  0C04  0876               	movf	??_data_clear,w
  4986  0C05  07F8               	addwf	data_clear@addr,f
  4987  0C06                     l2399:	
  4988  0C06  0878               	movf	data_clear@addr,w
  4989  0C07  0275               	subwf	data_clear@end,w
  4990  0C08  1803               	skipnc
  4991  0C09  2C0B               	goto	u2251
  4992  0C0A  2C0C               	goto	u2250
  4993  0C0B                     u2251:	
  4994  0C0B  2BF3               	goto	l2395
  4995  0C0C                     u2250:	
  4996  0C0C                     l148:	
  4997  0C0C  0008               	return
  4998  0C0D                     __end_of_data_clear:	
  4999                           
  5000                           	psect	text14
  5001  025C                     __ptext14:	
  5002 ;; *************** function _alarm_init *****************
  5003 ;; Defined at:
  5004 ;;		line 223 in file "alarm.c"
  5005 ;; Parameters:    Size  Location     Type
  5006 ;;		None
  5007 ;; Auto vars:     Size  Location     Type
  5008 ;;  i               1   12[COMMON] unsigned char 
  5009 ;; Return value:  Size  Location     Type
  5010 ;;                  1    wreg      void 
  5011 ;; Registers used:
  5012 ;;		wreg, fsr0l, fsr0h, status,2, status,0, pclath, cstack
  5013 ;; Tracked objects:
  5014 ;;		On entry : 0/0
  5015 ;;		On exit  : 0/0
  5016 ;;		Unchanged: 0/0
  5017 ;; Data sizes:     COMMON   BANK0   BANK1   BANK3   BANK2
  5018 ;;      Params:         0       0       0       0       0
  5019 ;;      Locals:         1       0       0       0       0
  5020 ;;      Temps:          0       5       0       0       0
  5021 ;;      Totals:         1       5       0       0       0
  5022 ;;Total ram usage:        6 bytes
  5023 ;; Hardware stack levels used:    1
  5024 ;; Hardware stack levels required when called:    3
  5025 ;; This function calls:
  5026 ;;		___wmul
  5027 ;;		_cont_data_read
  5028 ;;		_cont_data_write
  5029 ;;		_data_read
  5030 ;;		_data_write
  5031 ;; This function is called by:
  5032 ;;		_main
  5033 ;; This function uses a non-reentrant model
  5034 ;;
  5035                           
  5036                           
  5037                           ;psect for function _alarm_init
  5038  025C                     _alarm_init:	
  5039  025C                     l2615:	
  5040                           ;incstack = 0
  5041                           ; Regs used in _alarm_init: [wreg-fsr0h+status,2+status,0+pclath+cstack]
  5042                           
  5043                           
  5044                           ;alarm.c: 226:     for(alarm_no = 0; alarm_no < 4; alarm_no++){
  5045  025C  1283               	bcf	3,5	;RP0=0, select bank0
  5046  025D  1303               	bcf	3,6	;RP1=0, select bank0
  5047  025E  01DD               	clrf	_alarm_no
  5048  025F                     l2617:	
  5049  025F  3004               	movlw	4
  5050  0260  025D               	subwf	_alarm_no,w
  5051  0261  1C03               	skipc
  5052  0262  2A64               	goto	u2691
  5053  0263  2A65               	goto	u2690
  5054  0264                     u2691:	
  5055  0264  2A66               	goto	l2621
  5056  0265                     u2690:	
  5057  0265  2AC9               	goto	l2637
  5058  0266                     l2621:	
  5059                           
  5060                           ;alarm.c: 227:         cont_data_read(alarm, alarm_no*2, 2, 0x7F);
  5061  0266  085D               	movf	_alarm_no,w
  5062  0267  00A0               	movwf	??_alarm_init
  5063  0268  0720               	addwf	??_alarm_init,w
  5064  0269  00A1               	movwf	??_alarm_init+1
  5065  026A  0821               	movf	??_alarm_init+1,w
  5066  026B  00F3               	movwf	cont_data_read@start
  5067  026C  3002               	movlw	2
  5068  026D  00A2               	movwf	??_alarm_init+2
  5069  026E  0822               	movf	??_alarm_init+2,w
  5070  026F  00F4               	movwf	cont_data_read@len
  5071  0270  307F               	movlw	127
  5072  0271  00A3               	movwf	??_alarm_init+3
  5073  0272  0823               	movf	??_alarm_init+3,w
  5074  0273  00F5               	movwf	cont_data_read@end_char
  5075  0274  3062               	movlw	(low (_alarm| 0))& (0+255)
  5076  0275  120A  158A  23AD  120A  118A  	fcall	_cont_data_read
  5077  027A                     l2623:	
  5078                           
  5079                           ;alarm.c: 228:         if(alarm[0] == 0xFF){
  5080  027A  1283               	bcf	3,5	;RP0=0, select bank0
  5081  027B  1303               	bcf	3,6	;RP1=0, select bank0
  5082  027C  0A62               	incf	_alarm,w
  5083  027D  1D03               	btfss	3,2
  5084  027E  2A80               	goto	u2701
  5085  027F  2A81               	goto	u2700
  5086  0280                     u2701:	
  5087  0280  2A9F               	goto	l2631
  5088  0281                     u2700:	
  5089  0281                     l2625:	
  5090                           
  5091                           ;alarm.c: 229:             alarm[0] = alarm[1] = 0;
  5092  0281  01E3               	clrf	_alarm+1
  5093  0282  01E2               	clrf	_alarm
  5094  0283                     l2627:	
  5095                           
  5096                           ;alarm.c: 230:             cont_data_write(alarm_no*2, alarm, 0x7F);
  5097  0283  3062               	movlw	(low (_alarm| 0))& (0+255)
  5098  0284  00A0               	movwf	??_alarm_init
  5099  0285  0820               	movf	??_alarm_init,w
  5100  0286  00F5               	movwf	cont_data_write@arr
  5101  0287  307F               	movlw	127
  5102  0288  00A1               	movwf	??_alarm_init+1
  5103  0289  0821               	movf	??_alarm_init+1,w
  5104  028A  00F6               	movwf	cont_data_write@end_char
  5105  028B  085D               	movf	_alarm_no,w
  5106  028C  00A2               	movwf	??_alarm_init+2
  5107  028D  0722               	addwf	??_alarm_init+2,w
  5108  028E  120A  158A  240D  120A  118A  	fcall	_cont_data_write
  5109  0293                     l2629:	
  5110                           
  5111                           ;alarm.c: 231:             alarms[alarm_no] = 0;
  5112  0293  1283               	bcf	3,5	;RP0=0, select bank0
  5113  0294  1303               	bcf	3,6	;RP1=0, select bank0
  5114  0295  085D               	movf	_alarm_no,w
  5115  0296  00A0               	movwf	??_alarm_init
  5116  0297  0720               	addwf	??_alarm_init,w
  5117  0298  3E4F               	addlw	(low (_alarms| 0))& (0+255)
  5118  0299  0084               	movwf	4
  5119  029A  1383               	bcf	3,7	;select IRP bank0
  5120  029B  0180               	clrf	0
  5121  029C  0A84               	incf	4,f
  5122  029D  0180               	clrf	0
  5123                           
  5124                           ;alarm.c: 232:         }
  5125  029E  2AC4               	goto	l2633
  5126  029F                     l2631:	
  5127                           
  5128                           ;alarm.c: 234:             alarms[alarm_no] = alarm[0]*60 + alarm[1];
  5129  029F  0862               	movf	_alarm,w
  5130  02A0  00A0               	movwf	??_alarm_init
  5131  02A1  01A1               	clrf	??_alarm_init+1
  5132  02A2  0820               	movf	??_alarm_init,w
  5133  02A3  00F0               	movwf	___wmul@multiplier
  5134  02A4  0821               	movf	??_alarm_init+1,w
  5135  02A5  00F1               	movwf	___wmul@multiplier+1
  5136  02A6  303C               	movlw	60
  5137  02A7  00F2               	movwf	___wmul@multiplicand
  5138  02A8  3000               	movlw	0
  5139  02A9  00F3               	movwf	___wmul@multiplicand+1
  5140  02AA  120A  158A  2388  120A  118A  	fcall	___wmul
  5141  02AF  1283               	bcf	3,5	;RP0=0, select bank0
  5142  02B0  1303               	bcf	3,6	;RP1=0, select bank0
  5143  02B1  0863               	movf	_alarm+1,w
  5144  02B2  0770               	addwf	?___wmul,w
  5145  02B3  00A2               	movwf	??_alarm_init+2
  5146  02B4  3000               	movlw	0
  5147  02B5  1803               	skipnc
  5148  02B6  3001               	movlw	1
  5149  02B7  0771               	addwf	?___wmul+1,w
  5150  02B8  00A3               	movwf	??_alarm_init+3
  5151  02B9  085D               	movf	_alarm_no,w
  5152  02BA  00A4               	movwf	??_alarm_init+4
  5153  02BB  0724               	addwf	??_alarm_init+4,w
  5154  02BC  3E4F               	addlw	(low (_alarms| 0))& (0+255)
  5155  02BD  0084               	movwf	4
  5156  02BE  0822               	movf	??_alarm_init+2,w
  5157  02BF  1383               	bcf	3,7	;select IRP bank0
  5158  02C0  0080               	movwf	0
  5159  02C1  0A84               	incf	4,f
  5160  02C2  0823               	movf	??_alarm_init+3,w
  5161  02C3  0080               	movwf	0
  5162  02C4                     l2633:	
  5163                           
  5164                           ;alarm.c: 236:     }
  5165  02C4  3001               	movlw	1
  5166  02C5  00A0               	movwf	??_alarm_init
  5167  02C6  0820               	movf	??_alarm_init,w
  5168  02C7  07DD               	addwf	_alarm_no,f
  5169  02C8  2A5F               	goto	l2617
  5170  02C9                     l2637:	
  5171                           
  5172                           ;alarm.c: 237:     alarm_no = 0;
  5173  02C9  01DD               	clrf	_alarm_no
  5174  02CA                     l2639:	
  5175                           
  5176                           ;alarm.c: 239:     al_state = data_read(0x08);
  5177  02CA  3008               	movlw	8
  5178  02CB  120A  158A  232B  120A  118A  	fcall	_data_read
  5179  02D0  1283               	bcf	3,5	;RP0=0, select bank0
  5180  02D1  1303               	bcf	3,6	;RP1=0, select bank0
  5181  02D2  00A0               	movwf	??_alarm_init
  5182  02D3  0820               	movf	??_alarm_init,w
  5183  02D4  00D9               	movwf	_al_state
  5184  02D5                     l2641:	
  5185                           
  5186                           ;alarm.c: 240:     if(al_state == 0xFF){
  5187  02D5  0A59               	incf	_al_state,w
  5188  02D6  1D03               	btfss	3,2
  5189  02D7  2AD9               	goto	u2711
  5190  02D8  2ADA               	goto	u2710
  5191  02D9                     u2711:	
  5192  02D9  2AE2               	goto	l2647
  5193  02DA                     u2710:	
  5194  02DA                     l2643:	
  5195                           
  5196                           ;alarm.c: 241:         al_state = 0;
  5197  02DA  01D9               	clrf	_al_state
  5198  02DB                     l2645:	
  5199                           
  5200                           ;alarm.c: 242:         data_write(0x08, 0);
  5201  02DB  01F2               	clrf	data_write@data
  5202  02DC  3008               	movlw	8
  5203  02DD  120A  158A  24BD  120A  118A  	fcall	_data_write
  5204  02E2                     l2647:	
  5205                           
  5206                           ;alarm.c: 246:     snz_state = 0;
  5207  02E2  1283               	bcf	3,5	;RP0=0, select bank0
  5208  02E3  1303               	bcf	3,6	;RP1=0, select bank0
  5209  02E4  01D8               	clrf	_snz_state
  5210  02E5                     l2649:	
  5211                           
  5212                           ;alarm.c: 247:     for(char i = 0; i < 4; i++){
  5213  02E5  01FC               	clrf	alarm_init@i
  5214  02E6                     l2655:	
  5215                           
  5216                           ;alarm.c: 248:         snz[i] = 0;
  5217  02E6  087C               	movf	alarm_init@i,w
  5218  02E7  00A0               	movwf	??_alarm_init
  5219  02E8  0720               	addwf	??_alarm_init,w
  5220  02E9  3E47               	addlw	(low (_snz| 0))& (0+255)
  5221  02EA  0084               	movwf	4
  5222  02EB  1383               	bcf	3,7	;select IRP bank0
  5223  02EC  0180               	clrf	0
  5224  02ED  0A84               	incf	4,f
  5225  02EE  0180               	clrf	0
  5226  02EF                     l2657:	
  5227                           
  5228                           ;alarm.c: 249:     }
  5229  02EF  3001               	movlw	1
  5230  02F0  00A0               	movwf	??_alarm_init
  5231  02F1  0820               	movf	??_alarm_init,w
  5232  02F2  07FC               	addwf	alarm_init@i,f
  5233  02F3                     l2659:	
  5234  02F3  3004               	movlw	4
  5235  02F4  027C               	subwf	alarm_init@i,w
  5236  02F5  1C03               	skipc
  5237  02F6  2AF8               	goto	u2721
  5238  02F7  2AF9               	goto	u2720
  5239  02F8                     u2721:	
  5240  02F8  2AE6               	goto	l2655
  5241  02F9                     u2720:	
  5242  02F9                     l289:	
  5243  02F9  0008               	return
  5244  02FA                     __end_of_alarm_init:	
  5245                           
  5246                           	psect	text15
  5247  0C0D                     __ptext15:	
  5248 ;; *************** function _cont_data_write *****************
  5249 ;; Defined at:
  5250 ;;		line 58 in file "../lib\eeprom.h"
  5251 ;; Parameters:    Size  Location     Type
  5252 ;;  start           1    wreg     unsigned char 
  5253 ;;  arr             1    5[COMMON] PTR unsigned char 
  5254 ;;		 -> alarm(3), 
  5255 ;;  end_char        1    6[COMMON] unsigned char 
  5256 ;; Auto vars:     Size  Location     Type
  5257 ;;  start           1    9[COMMON] unsigned char 
  5258 ;;  i               1   11[COMMON] unsigned char 
  5259 ;;  len             1   10[COMMON] unsigned char 
  5260 ;; Return value:  Size  Location     Type
  5261 ;;                  1    wreg      void 
  5262 ;; Registers used:
  5263 ;;		wreg, fsr0l, fsr0h, status,2, status,0, pclath, cstack
  5264 ;; Tracked objects:
  5265 ;;		On entry : 0/0
  5266 ;;		On exit  : 0/0
  5267 ;;		Unchanged: 0/0
  5268 ;; Data sizes:     COMMON   BANK0   BANK1   BANK3   BANK2
  5269 ;;      Params:         2       0       0       0       0
  5270 ;;      Locals:         3       0       0       0       0
  5271 ;;      Temps:          2       0       0       0       0
  5272 ;;      Totals:         7       0       0       0       0
  5273 ;;Total ram usage:        7 bytes
  5274 ;; Hardware stack levels used:    1
  5275 ;; Hardware stack levels required when called:    2
  5276 ;; This function calls:
  5277 ;;		_data_write
  5278 ;;		_delay
  5279 ;; This function is called by:
  5280 ;;		_alarm_init
  5281 ;;		_main
  5282 ;; This function uses a non-reentrant model
  5283 ;;
  5284                           
  5285                           
  5286                           ;psect for function _cont_data_write
  5287  0C0D                     _cont_data_write:	
  5288                           
  5289                           ;incstack = 0
  5290                           ; Regs used in _cont_data_write: [wreg-fsr0h+status,2+status,0+pclath+cstack]
  5291                           ;cont_data_write@start stored from wreg
  5292  0C0D  00F9               	movwf	cont_data_write@start
  5293  0C0E                     l2291:	
  5294                           
  5295                           ;../lib\eeprom.h: 59:     unsigned char i, len = 0;
  5296  0C0E  01FA               	clrf	cont_data_write@len
  5297                           
  5298                           ;../lib\eeprom.h: 61:     while(arr[len] != end_char) len++;
  5299  0C0F  2C14               	goto	l2295
  5300  0C10                     l2293:	
  5301  0C10  3001               	movlw	1
  5302  0C11  00F7               	movwf	??_cont_data_write
  5303  0C12  0877               	movf	??_cont_data_write,w
  5304  0C13  07FA               	addwf	cont_data_write@len,f
  5305  0C14                     l2295:	
  5306  0C14  087A               	movf	cont_data_write@len,w
  5307  0C15  0775               	addwf	cont_data_write@arr,w
  5308  0C16  00F7               	movwf	??_cont_data_write
  5309  0C17  0877               	movf	??_cont_data_write,w
  5310  0C18  0084               	movwf	4
  5311  0C19  1383               	bcf	3,7	;select IRP bank0
  5312  0C1A  0800               	movf	0,w
  5313  0C1B  0676               	xorwf	cont_data_write@end_char,w
  5314  0C1C  1D03               	skipz
  5315  0C1D  2C1F               	goto	u2121
  5316  0C1E  2C20               	goto	u2120
  5317  0C1F                     u2121:	
  5318  0C1F  2C10               	goto	l2293
  5319  0C20                     u2120:	
  5320  0C20                     l2297:	
  5321                           
  5322                           ;../lib\eeprom.h: 62:     for(i = 0; i < len; i++){
  5323  0C20  01FB               	clrf	cont_data_write@i
  5324  0C21  2C3C               	goto	l2305
  5325  0C22                     l2299:	
  5326                           
  5327                           ;../lib\eeprom.h: 63:         data_write(start + i, arr[i]);
  5328  0C22  087B               	movf	cont_data_write@i,w
  5329  0C23  0775               	addwf	cont_data_write@arr,w
  5330  0C24  00F7               	movwf	??_cont_data_write
  5331  0C25  0877               	movf	??_cont_data_write,w
  5332  0C26  0084               	movwf	4
  5333  0C27  1383               	bcf	3,7	;select IRP bank0
  5334  0C28  0800               	movf	0,w
  5335  0C29  00F8               	movwf	??_cont_data_write+1
  5336  0C2A  0878               	movf	??_cont_data_write+1,w
  5337  0C2B  00F2               	movwf	data_write@data
  5338  0C2C  087B               	movf	cont_data_write@i,w
  5339  0C2D  0779               	addwf	cont_data_write@start,w
  5340  0C2E  120A  158A  24BD  120A  158A  	fcall	_data_write
  5341  0C33                     l2301:	
  5342                           
  5343                           ;../lib\eeprom.h: 64:         delay();
  5344  0C33  120A  158A  2316  120A  158A  	fcall	_delay
  5345  0C38                     l2303:	
  5346                           
  5347                           ;../lib\eeprom.h: 65:     }
  5348  0C38  3001               	movlw	1
  5349  0C39  00F7               	movwf	??_cont_data_write
  5350  0C3A  0877               	movf	??_cont_data_write,w
  5351  0C3B  07FB               	addwf	cont_data_write@i,f
  5352  0C3C                     l2305:	
  5353  0C3C  087A               	movf	cont_data_write@len,w
  5354  0C3D  027B               	subwf	cont_data_write@i,w
  5355  0C3E  1C03               	skipc
  5356  0C3F  2C41               	goto	u2131
  5357  0C40  2C42               	goto	u2130
  5358  0C41                     u2131:	
  5359  0C41  2C22               	goto	l2299
  5360  0C42                     u2130:	
  5361  0C42                     l141:	
  5362  0C42  0008               	return
  5363  0C43                     __end_of_cont_data_write:	
  5364                           
  5365                           	psect	text16
  5366  0CBD                     __ptext16:	
  5367 ;; *************** function _data_write *****************
  5368 ;; Defined at:
  5369 ;;		line 28 in file "../lib\eeprom.h"
  5370 ;; Parameters:    Size  Location     Type
  5371 ;;  addr            1    wreg     unsigned char 
  5372 ;;  data            1    2[COMMON] unsigned char 
  5373 ;; Auto vars:     Size  Location     Type
  5374 ;;  addr            1    3[COMMON] unsigned char 
  5375 ;;  prev_gie        1    4[COMMON] unsigned char 
  5376 ;; Return value:  Size  Location     Type
  5377 ;;                  1    wreg      void 
  5378 ;; Registers used:
  5379 ;;		wreg, status,2, status,0, pclath, cstack
  5380 ;; Tracked objects:
  5381 ;;		On entry : 0/0
  5382 ;;		On exit  : 0/0
  5383 ;;		Unchanged: 0/0
  5384 ;; Data sizes:     COMMON   BANK0   BANK1   BANK3   BANK2
  5385 ;;      Params:         1       0       0       0       0
  5386 ;;      Locals:         2       0       0       0       0
  5387 ;;      Temps:          0       0       0       0       0
  5388 ;;      Totals:         3       0       0       0       0
  5389 ;;Total ram usage:        3 bytes
  5390 ;; Hardware stack levels used:    1
  5391 ;; Hardware stack levels required when called:    1
  5392 ;; This function calls:
  5393 ;;		_delay
  5394 ;; This function is called by:
  5395 ;;		_cont_data_write
  5396 ;;		_data_clear
  5397 ;;		_alarm_init
  5398 ;;		_main
  5399 ;; This function uses a non-reentrant model
  5400 ;;
  5401                           
  5402                           
  5403                           ;psect for function _data_write
  5404  0CBD                     _data_write:	
  5405                           
  5406                           ;incstack = 0
  5407                           ; Regs used in _data_write: [wreg+status,2+status,0+pclath+cstack]
  5408                           ;data_write@addr stored from wreg
  5409  0CBD  00F3               	movwf	data_write@addr
  5410  0CBE                     l2219:	
  5411                           
  5412                           ;../lib\eeprom.h: 29:     if(!EEIF || EECON1bits.WR){
  5413  0CBE  1283               	bcf	3,5	;RP0=0, select bank0
  5414  0CBF  1303               	bcf	3,6	;RP1=0, select bank0
  5415  0CC0  1E0D               	btfss	13,4	;volatile
  5416  0CC1  2CC3               	goto	u1991
  5417  0CC2  2CC4               	goto	u1990
  5418  0CC3                     u1991:	
  5419  0CC3  2CCA               	goto	l120
  5420  0CC4                     u1990:	
  5421  0CC4                     l2221:	
  5422  0CC4  1683               	bsf	3,5	;RP0=1, select bank3
  5423  0CC5  1703               	bsf	3,6	;RP1=1, select bank3
  5424  0CC6  1C8C               	btfss	12,1	;volsfr
  5425  0CC7  2CC9               	goto	u2001
  5426  0CC8  2CCA               	goto	u2000
  5427  0CC9                     u2001:	
  5428  0CC9  2CD0               	goto	l2223
  5429  0CCA                     u2000:	
  5430  0CCA                     l120:	
  5431  0CCA  1683               	bsf	3,5	;RP0=1, select bank3
  5432  0CCB  1703               	bsf	3,6	;RP1=1, select bank3
  5433  0CCC  188C               	btfsc	12,1	;volsfr
  5434  0CCD  2CCF               	goto	u2011
  5435  0CCE  2CD0               	goto	u2010
  5436  0CCF                     u2011:	
  5437  0CCF  2CCA               	goto	l120
  5438  0CD0                     u2010:	
  5439  0CD0                     l2223:	
  5440                           
  5441                           ;../lib\eeprom.h: 32:     delay();
  5442  0CD0  120A  158A  2316  120A  158A  	fcall	_delay
  5443  0CD5                     l2225:	
  5444                           
  5445                           ;../lib\eeprom.h: 33:     EEIF = 0;
  5446  0CD5  1283               	bcf	3,5	;RP0=0, select bank0
  5447  0CD6  1303               	bcf	3,6	;RP1=0, select bank0
  5448  0CD7  120D               	bcf	13,4	;volatile
  5449  0CD8                     l2227:	
  5450                           
  5451                           ;../lib\eeprom.h: 34:     EEADR = addr;
  5452  0CD8  0873               	movf	data_write@addr,w
  5453  0CD9  1283               	bcf	3,5	;RP0=0, select bank2
  5454  0CDA  1703               	bsf	3,6	;RP1=1, select bank2
  5455  0CDB  008D               	movwf	13	;volatile
  5456  0CDC                     l2229:	
  5457                           
  5458                           ;../lib\eeprom.h: 35:     EEDATA = data;
  5459  0CDC  0872               	movf	data_write@data,w
  5460  0CDD  008C               	movwf	12	;volatile
  5461  0CDE                     l2231:	
  5462                           
  5463                           ;../lib\eeprom.h: 36:     EECON1bits.WREN = 1;
  5464  0CDE  1683               	bsf	3,5	;RP0=1, select bank3
  5465  0CDF  1703               	bsf	3,6	;RP1=1, select bank3
  5466  0CE0  150C               	bsf	12,2	;volsfr
  5467  0CE1                     l2233:	
  5468                           
  5469                           ;../lib\eeprom.h: 37:     char prev_gie = GIE;
  5470  0CE1  3000               	movlw	0
  5471  0CE2  1B8B               	btfsc	11,7	;volatile
  5472  0CE3  3001               	movlw	1
  5473  0CE4  00F4               	movwf	data_write@prev_gie
  5474  0CE5                     l2235:	
  5475                           
  5476                           ;../lib\eeprom.h: 38:     INTCONbits.GIE = 0;
  5477  0CE5  138B               	bcf	11,7	;volatile
  5478  0CE6                     l2237:	
  5479                           
  5480                           ;../lib\eeprom.h: 39:     EECON2 = 0x55;
  5481  0CE6  3055               	movlw	85
  5482  0CE7  008D               	movwf	13	;volsfr
  5483  0CE8                     l2239:	
  5484                           
  5485                           ;../lib\eeprom.h: 40:     EECON2 = 0xAA;
  5486  0CE8  30AA               	movlw	170
  5487  0CE9  008D               	movwf	13	;volsfr
  5488  0CEA                     l2241:	
  5489                           
  5490                           ;../lib\eeprom.h: 41:     EECON1bits.WR = 1;
  5491  0CEA  148C               	bsf	12,1	;volsfr
  5492  0CEB                     l2243:	
  5493                           
  5494                           ;../lib\eeprom.h: 42:     GIE = prev_gie;
  5495  0CEB  1874               	btfsc	data_write@prev_gie,0
  5496  0CEC  2CEE               	goto	u2021
  5497  0CED  2CF0               	goto	u2020
  5498  0CEE                     u2021:	
  5499  0CEE  178B               	bsf	11,7	;volatile
  5500  0CEF  2CF1               	goto	u2034
  5501  0CF0                     u2020:	
  5502  0CF0  138B               	bcf	11,7	;volatile
  5503  0CF1                     u2034:	
  5504  0CF1                     l2245:	
  5505                           
  5506                           ;../lib\eeprom.h: 43:     EECON1bits.WREN = 0;
  5507  0CF1  1683               	bsf	3,5	;RP0=1, select bank3
  5508  0CF2  1703               	bsf	3,6	;RP1=1, select bank3
  5509  0CF3  110C               	bcf	12,2	;volsfr
  5510  0CF4                     l123:	
  5511                           ;../lib\eeprom.h: 44:     while(EECON1bits.WR || !EEIF);
  5512                           
  5513  0CF4  1683               	bsf	3,5	;RP0=1, select bank3
  5514  0CF5  1703               	bsf	3,6	;RP1=1, select bank3
  5515  0CF6  188C               	btfsc	12,1	;volsfr
  5516  0CF7  2CF9               	goto	u2041
  5517  0CF8  2CFA               	goto	u2040
  5518  0CF9                     u2041:	
  5519  0CF9  2CF4               	goto	l123
  5520  0CFA                     u2040:	
  5521  0CFA                     l2247:	
  5522  0CFA  1283               	bcf	3,5	;RP0=0, select bank0
  5523  0CFB  1303               	bcf	3,6	;RP1=0, select bank0
  5524  0CFC  1E0D               	btfss	13,4	;volatile
  5525  0CFD  2CFF               	goto	u2051
  5526  0CFE  2D00               	goto	u2050
  5527  0CFF                     u2051:	
  5528  0CFF  2CF4               	goto	l123
  5529  0D00                     u2050:	
  5530  0D00                     l126:	
  5531  0D00  0008               	return
  5532  0D01                     __end_of_data_write:	
  5533                           
  5534                           	psect	text17
  5535  0BAD                     __ptext17:	
  5536 ;; *************** function _cont_data_read *****************
  5537 ;; Defined at:
  5538 ;;		line 49 in file "../lib\eeprom.h"
  5539 ;; Parameters:    Size  Location     Type
  5540 ;;  data            1    wreg     PTR unsigned char 
  5541 ;;		 -> alarm(3), 
  5542 ;;  start           1    3[COMMON] unsigned char 
  5543 ;;  len             1    4[COMMON] unsigned char 
  5544 ;;  end_char        1    5[COMMON] unsigned char 
  5545 ;; Auto vars:     Size  Location     Type
  5546 ;;  data            1    8[COMMON] PTR unsigned char 
  5547 ;;		 -> alarm(3), 
  5548 ;;  i               1    9[COMMON] unsigned char 
  5549 ;; Return value:  Size  Location     Type
  5550 ;;                  1    wreg      void 
  5551 ;; Registers used:
  5552 ;;		wreg, fsr0l, fsr0h, status,2, status,0, pclath, cstack
  5553 ;; Tracked objects:
  5554 ;;		On entry : 0/0
  5555 ;;		On exit  : 0/0
  5556 ;;		Unchanged: 0/0
  5557 ;; Data sizes:     COMMON   BANK0   BANK1   BANK3   BANK2
  5558 ;;      Params:         3       0       0       0       0
  5559 ;;      Locals:         2       0       0       0       0
  5560 ;;      Temps:          2       0       0       0       0
  5561 ;;      Totals:         7       0       0       0       0
  5562 ;;Total ram usage:        7 bytes
  5563 ;; Hardware stack levels used:    1
  5564 ;; Hardware stack levels required when called:    2
  5565 ;; This function calls:
  5566 ;;		_data_read
  5567 ;;		_delay
  5568 ;; This function is called by:
  5569 ;;		_alarm_init
  5570 ;; This function uses a non-reentrant model
  5571 ;;
  5572                           
  5573                           
  5574                           ;psect for function _cont_data_read
  5575  0BAD                     _cont_data_read:	
  5576                           
  5577                           ;incstack = 0
  5578                           ; Regs used in _cont_data_read: [wreg-fsr0h+status,2+status,0+pclath+cstack]
  5579                           ;cont_data_read@data stored from wreg
  5580  0BAD  00F8               	movwf	cont_data_read@data
  5581  0BAE                     l2279:	
  5582                           
  5583                           ;../lib\eeprom.h: 50:     unsigned char i;;../lib\eeprom.h: 51:     for(i = 0; i < len; 
      +                          i++){
  5584  0BAE  01F9               	clrf	cont_data_read@i
  5585  0BAF  2BC9               	goto	l2287
  5586  0BB0                     l2281:	
  5587                           
  5588                           ;../lib\eeprom.h: 52:         data[i] = data_read(start + i);
  5589  0BB0  0879               	movf	cont_data_read@i,w
  5590  0BB1  0773               	addwf	cont_data_read@start,w
  5591  0BB2  120A  158A  232B  120A  158A  	fcall	_data_read
  5592  0BB7  00F6               	movwf	??_cont_data_read
  5593  0BB8  0879               	movf	cont_data_read@i,w
  5594  0BB9  0778               	addwf	cont_data_read@data,w
  5595  0BBA  00F7               	movwf	??_cont_data_read+1
  5596  0BBB  0877               	movf	??_cont_data_read+1,w
  5597  0BBC  0084               	movwf	4
  5598  0BBD  0876               	movf	??_cont_data_read,w
  5599  0BBE  1383               	bcf	3,7	;select IRP bank0
  5600  0BBF  0080               	movwf	0
  5601  0BC0                     l2283:	
  5602                           
  5603                           ;../lib\eeprom.h: 53:         delay();
  5604  0BC0  120A  158A  2316  120A  158A  	fcall	_delay
  5605  0BC5                     l2285:	
  5606                           
  5607                           ;../lib\eeprom.h: 54:     }
  5608  0BC5  3001               	movlw	1
  5609  0BC6  00F6               	movwf	??_cont_data_read
  5610  0BC7  0876               	movf	??_cont_data_read,w
  5611  0BC8  07F9               	addwf	cont_data_read@i,f
  5612  0BC9                     l2287:	
  5613  0BC9  0874               	movf	cont_data_read@len,w
  5614  0BCA  0279               	subwf	cont_data_read@i,w
  5615  0BCB  1C03               	skipc
  5616  0BCC  2BCE               	goto	u2111
  5617  0BCD  2BCF               	goto	u2110
  5618  0BCE                     u2111:	
  5619  0BCE  2BB0               	goto	l2281
  5620  0BCF                     u2110:	
  5621  0BCF                     l2289:	
  5622                           
  5623                           ;../lib\eeprom.h: 55:     data[i] = end_char;
  5624  0BCF  0875               	movf	cont_data_read@end_char,w
  5625  0BD0  00F6               	movwf	??_cont_data_read
  5626  0BD1  0879               	movf	cont_data_read@i,w
  5627  0BD2  0778               	addwf	cont_data_read@data,w
  5628  0BD3  00F7               	movwf	??_cont_data_read+1
  5629  0BD4  0877               	movf	??_cont_data_read+1,w
  5630  0BD5  0084               	movwf	4
  5631  0BD6  0876               	movf	??_cont_data_read,w
  5632  0BD7  1383               	bcf	3,7	;select IRP bank0
  5633  0BD8  0080               	movwf	0
  5634  0BD9                     l132:	
  5635  0BD9  0008               	return
  5636  0BDA                     __end_of_cont_data_read:	
  5637                           
  5638                           	psect	text18
  5639  0B2B                     __ptext18:	
  5640 ;; *************** function _data_read *****************
  5641 ;; Defined at:
  5642 ;;		line 20 in file "../lib\eeprom.h"
  5643 ;; Parameters:    Size  Location     Type
  5644 ;;  addr            1    wreg     unsigned char 
  5645 ;; Auto vars:     Size  Location     Type
  5646 ;;  addr            1    2[COMMON] unsigned char 
  5647 ;; Return value:  Size  Location     Type
  5648 ;;                  1    wreg      unsigned char 
  5649 ;; Registers used:
  5650 ;;		wreg, status,2, status,0, pclath, cstack
  5651 ;; Tracked objects:
  5652 ;;		On entry : 0/0
  5653 ;;		On exit  : 0/0
  5654 ;;		Unchanged: 0/0
  5655 ;; Data sizes:     COMMON   BANK0   BANK1   BANK3   BANK2
  5656 ;;      Params:         0       0       0       0       0
  5657 ;;      Locals:         1       0       0       0       0
  5658 ;;      Temps:          0       0       0       0       0
  5659 ;;      Totals:         1       0       0       0       0
  5660 ;;Total ram usage:        1 bytes
  5661 ;; Hardware stack levels used:    1
  5662 ;; Hardware stack levels required when called:    1
  5663 ;; This function calls:
  5664 ;;		_delay
  5665 ;; This function is called by:
  5666 ;;		_cont_data_read
  5667 ;;		_alarm_init
  5668 ;; This function uses a non-reentrant model
  5669 ;;
  5670                           
  5671                           
  5672                           ;psect for function _data_read
  5673  0B2B                     _data_read:	
  5674                           
  5675                           ;incstack = 0
  5676                           ; Regs used in _data_read: [wreg+status,2+status,0+pclath+cstack]
  5677                           ;data_read@addr stored from wreg
  5678  0B2B  00F2               	movwf	data_read@addr
  5679  0B2C                     l2209:	
  5680                           
  5681                           ;../lib\eeprom.h: 21:     EEADR = addr;
  5682  0B2C  0872               	movf	data_read@addr,w
  5683  0B2D  1283               	bcf	3,5	;RP0=0, select bank2
  5684  0B2E  1703               	bsf	3,6	;RP1=1, select bank2
  5685  0B2F  008D               	movwf	13	;volatile
  5686  0B30                     l2211:	
  5687                           
  5688                           ;../lib\eeprom.h: 22:     EECON1bits.RD = 1;
  5689  0B30  1683               	bsf	3,5	;RP0=1, select bank3
  5690  0B31  1703               	bsf	3,6	;RP1=1, select bank3
  5691  0B32  140C               	bsf	12,0	;volsfr
  5692  0B33                     l111:	
  5693                           ;../lib\eeprom.h: 23:     while(EECON1bits.RD);
  5694                           
  5695  0B33  180C               	btfsc	12,0	;volsfr
  5696  0B34  2B36               	goto	u1981
  5697  0B35  2B37               	goto	u1980
  5698  0B36                     u1981:	
  5699  0B36  2B33               	goto	l111
  5700  0B37                     u1980:	
  5701  0B37                     l2213:	
  5702                           
  5703                           ;../lib\eeprom.h: 24:     delay();
  5704  0B37  120A  158A  2316  120A  158A  	fcall	_delay
  5705  0B3C                     l2215:	
  5706                           
  5707                           ;../lib\eeprom.h: 25:     return EEDATA;
  5708  0B3C  1283               	bcf	3,5	;RP0=0, select bank2
  5709  0B3D  1703               	bsf	3,6	;RP1=1, select bank2
  5710  0B3E  080C               	movf	12,w	;volatile
  5711  0B3F                     l114:	
  5712  0B3F  0008               	return
  5713  0B40                     __end_of_data_read:	
  5714                           
  5715                           	psect	text19
  5716  0B16                     __ptext19:	
  5717 ;; *************** function _delay *****************
  5718 ;; Defined at:
  5719 ;;		line 10 in file "../lib\eeprom.h"
  5720 ;; Parameters:    Size  Location     Type
  5721 ;;		None
  5722 ;; Auto vars:     Size  Location     Type
  5723 ;;		None
  5724 ;; Return value:  Size  Location     Type
  5725 ;;                  1    wreg      void 
  5726 ;; Registers used:
  5727 ;;		wreg
  5728 ;; Tracked objects:
  5729 ;;		On entry : 0/0
  5730 ;;		On exit  : 0/0
  5731 ;;		Unchanged: 0/0
  5732 ;; Data sizes:     COMMON   BANK0   BANK1   BANK3   BANK2
  5733 ;;      Params:         0       0       0       0       0
  5734 ;;      Locals:         0       0       0       0       0
  5735 ;;      Temps:          2       0       0       0       0
  5736 ;;      Totals:         2       0       0       0       0
  5737 ;;Total ram usage:        2 bytes
  5738 ;; Hardware stack levels used:    1
  5739 ;; This function calls:
  5740 ;;		Nothing
  5741 ;; This function is called by:
  5742 ;;		_data_read
  5743 ;;		_data_write
  5744 ;;		_cont_data_read
  5745 ;;		_cont_data_write
  5746 ;;		_data_clear
  5747 ;; This function uses a non-reentrant model
  5748 ;;
  5749                           
  5750                           
  5751                           ;psect for function _delay
  5752  0B16                     _delay:	
  5753  0B16                     l2119:	
  5754                           ;incstack = 0
  5755                           ; Regs used in _delay: [wreg]
  5756                           
  5757                           
  5758                           ;../lib\eeprom.h: 11:     _delay((unsigned long)((500)*(20000000/4000000.0)));
  5759  0B16  3004               	movlw	4
  5760  0B17  00F1               	movwf	??_delay+1
  5761  0B18  303D               	movlw	61
  5762  0B19  00F0               	movwf	??_delay
  5763  0B1A                     u3587:	
  5764  0B1A  0BF0               	decfsz	??_delay,f
  5765  0B1B  2B1A               	goto	u3587
  5766  0B1C  0BF1               	decfsz	??_delay+1,f
  5767  0B1D  2B1A               	goto	u3587
  5768  0B1E  2B1F               	nop2
  5769  0B1F                     l105:	
  5770  0B1F  0008               	return
  5771  0B20                     __end_of_delay:	
  5772                           
  5773                           	psect	text20
  5774  0B88                     __ptext20:	
  5775 ;; *************** function ___wmul *****************
  5776 ;; Defined at:
  5777 ;;		line 15 in file "C:\Program Files (x86)\Microchip\xc8\v2.10\pic\sources\c90\common\Umul16.c"
  5778 ;; Parameters:    Size  Location     Type
  5779 ;;  multiplier      2    0[COMMON] unsigned int 
  5780 ;;  multiplicand    2    2[COMMON] unsigned int 
  5781 ;; Auto vars:     Size  Location     Type
  5782 ;;  product         2    4[COMMON] unsigned int 
  5783 ;; Return value:  Size  Location     Type
  5784 ;;                  2    0[COMMON] unsigned int 
  5785 ;; Registers used:
  5786 ;;		wreg, status,2, status,0
  5787 ;; Tracked objects:
  5788 ;;		On entry : 0/0
  5789 ;;		On exit  : 0/0
  5790 ;;		Unchanged: 0/0
  5791 ;; Data sizes:     COMMON   BANK0   BANK1   BANK3   BANK2
  5792 ;;      Params:         4       0       0       0       0
  5793 ;;      Locals:         2       0       0       0       0
  5794 ;;      Temps:          0       0       0       0       0
  5795 ;;      Totals:         6       0       0       0       0
  5796 ;;Total ram usage:        6 bytes
  5797 ;; Hardware stack levels used:    1
  5798 ;; This function calls:
  5799 ;;		Nothing
  5800 ;; This function is called by:
  5801 ;;		_alarm_init
  5802 ;;		_main
  5803 ;; This function uses a non-reentrant model
  5804 ;;
  5805                           
  5806                           
  5807                           ;psect for function ___wmul
  5808  0B88                     ___wmul:	
  5809  0B88                     l2371:	
  5810                           ;incstack = 0
  5811                           ; Regs used in ___wmul: [wreg+status,2+status,0]
  5812                           
  5813  0B88  01F4               	clrf	___wmul@product
  5814  0B89  01F5               	clrf	___wmul@product+1
  5815  0B8A                     l2373:	
  5816  0B8A  1C70               	btfss	___wmul@multiplier,0
  5817  0B8B  2B8D               	goto	u2201
  5818  0B8C  2B8E               	goto	u2200
  5819  0B8D                     u2201:	
  5820  0B8D  2B94               	goto	l513
  5821  0B8E                     u2200:	
  5822  0B8E                     l2375:	
  5823  0B8E  0872               	movf	___wmul@multiplicand,w
  5824  0B8F  07F4               	addwf	___wmul@product,f
  5825  0B90  1803               	skipnc
  5826  0B91  0AF5               	incf	___wmul@product+1,f
  5827  0B92  0873               	movf	___wmul@multiplicand+1,w
  5828  0B93  07F5               	addwf	___wmul@product+1,f
  5829  0B94                     l513:	
  5830  0B94  3001               	movlw	1
  5831  0B95                     u2215:	
  5832  0B95  1003               	clrc
  5833  0B96  0DF2               	rlf	___wmul@multiplicand,f
  5834  0B97  0DF3               	rlf	___wmul@multiplicand+1,f
  5835  0B98  3EFF               	addlw	-1
  5836  0B99  1D03               	skipz
  5837  0B9A  2B95               	goto	u2215
  5838  0B9B                     l2377:	
  5839  0B9B  3001               	movlw	1
  5840  0B9C                     u2225:	
  5841  0B9C  1003               	clrc
  5842  0B9D  0CF1               	rrf	___wmul@multiplier+1,f
  5843  0B9E  0CF0               	rrf	___wmul@multiplier,f
  5844  0B9F  3EFF               	addlw	-1
  5845  0BA0  1D03               	skipz
  5846  0BA1  2B9C               	goto	u2225
  5847  0BA2                     l2379:	
  5848  0BA2  0870               	movf	___wmul@multiplier,w
  5849  0BA3  0471               	iorwf	___wmul@multiplier+1,w
  5850  0BA4  1D03               	btfss	3,2
  5851  0BA5  2BA7               	goto	u2231
  5852  0BA6  2BA8               	goto	u2230
  5853  0BA7                     u2231:	
  5854  0BA7  2B8A               	goto	l2373
  5855  0BA8                     u2230:	
  5856  0BA8                     l2381:	
  5857  0BA8  0875               	movf	___wmul@product+1,w
  5858  0BA9  00F1               	movwf	?___wmul+1
  5859  0BAA  0874               	movf	___wmul@product,w
  5860  0BAB  00F0               	movwf	?___wmul
  5861  0BAC                     l515:	
  5862  0BAC  0008               	return
  5863  0BAD                     __end_of___wmul:	
  5864  007E                     btemp	set	126	;btemp
  5865  007E                     wtemp0	set	126


Data Sizes:
    Strings     0
    Constant    0
    Data        3
    BSS         27
    Persistent  0
    Stack       0

Auto Spaces:
    Space          Size  Autos    Used
    COMMON           14     14      14
    BANK0            80     39      69
    BANK1            80      0       0
    BANK3            96      0       0
    BANK2            96      0       0

Pointer List with Targets:

    set_time@arr	PTR unsigned char  size(1) Largest target is 3
		 -> alarm(BANK0[3]), time(BANK0[2]), 

    cont_data_write@arr	PTR unsigned char  size(1) Largest target is 3
		 -> alarm(BANK0[3]), 

    cont_data_read@data	PTR unsigned char  size(1) Largest target is 3
		 -> alarm(BANK0[3]), 


Critical Paths under _main in COMMON

    _main->_disp
    _main->_disp_alarm_state
    _set_time->_disp
    _buzz->_disp
    _disp->_disp_dig
    _disp_alarm->_disp_alarm_no
    _disp_alarm->_disp_alarm_state
    _disp_alarm_state->_disp_dig
    _disp_alarm_no->_disp_dig
    _disp_dig->___awdiv
    _data_clear->_data_write
    _alarm_init->_cont_data_write
    _cont_data_write->_data_write
    _data_write->_delay
    _cont_data_read->_data_read
    _data_read->_delay

Critical Paths under _main in BANK0

    _main->_set_time
    _set_time->_buzz
    _buzz->_disp
    _disp_alarm->_disp_alarm_state

Critical Paths under _main in BANK1

    None.

Critical Paths under _main in BANK3

    None.

Critical Paths under _main in BANK2

    None.

Call Graph Tables:

 ---------------------------------------------------------------------------------
 (Depth) Function   	        Calls       Base Space   Used Autos Params    Refs
 ---------------------------------------------------------------------------------
 (0) _main                                                19    19      0   43946
                                             20 BANK0     19    19      0
                            ___awdiv
                            ___awmod
                             ___wmul
                         _alarm_init
                               _buzz
                    _cont_data_write
                         _data_clear
                          _data_init
                         _data_write
                               _disp
                         _disp_alarm
                   _disp_alarm_state
                  _real_time_counter
                           _set_time
 ---------------------------------------------------------------------------------
 (1) _set_time                                            12    11      1   16910
                                              8 BANK0     12    11      1
                               _buzz
                               _disp
                           _disp_dig
                  _real_time_counter
 ---------------------------------------------------------------------------------
 (2) _buzz                                                 4     3      1    6580
                                              4 BANK0      4     3      1
                               _disp
                  _real_time_counter
 ---------------------------------------------------------------------------------
 (2) _disp                                                 5     4      1    6186
                                             13 COMMON     1     0      1
                                              0 BANK0      4     4      0
                            ___awdiv
                            ___awmod
                           _disp_dig
 ---------------------------------------------------------------------------------
 (3) ___awmod                                              7     3      4    1208
                                              0 COMMON     7     3      4
 ---------------------------------------------------------------------------------
 (3) ___awdiv                                              9     5      4    1212
                                              0 COMMON     9     5      4
 ---------------------------------------------------------------------------------
 (1) _disp_alarm                                           0     0      0    3998
                      _disp_alarm_no
                   _disp_alarm_state
 ---------------------------------------------------------------------------------
 (1) _disp_alarm_state                                     3     3      0    2022
                                             13 COMMON     1     1      0
                                              0 BANK0      2     2      0
                           _disp_dig
                  _real_time_counter
 ---------------------------------------------------------------------------------
 (2) _disp_alarm_no                                        2     2      0    1976
                                             13 COMMON     1     1      0
                                              0 BANK0      1     1      0
                           _disp_dig
                  _real_time_counter
 ---------------------------------------------------------------------------------
 (2) _real_time_counter                                    1     1      0       0
                                              0 COMMON     1     1      0
 ---------------------------------------------------------------------------------
 (2) _disp_dig                                             4     3      1    1930
                                              9 COMMON     4     3      1
                            ___awdiv (ARG)
                            ___awmod (ARG)
                            _disp_cc
 ---------------------------------------------------------------------------------
 (3) _disp_cc                                              4     4      0      62
                                              0 COMMON     4     4      0
 ---------------------------------------------------------------------------------
 (1) _data_init                                            0     0      0       0
 ---------------------------------------------------------------------------------
 (1) _data_clear                                           4     3      1     712
                                              5 COMMON     4     3      1
                         _data_write
                              _delay
 ---------------------------------------------------------------------------------
 (1) _alarm_init                                           6     6      0    2673
                                             12 COMMON     1     1      0
                                              0 BANK0      5     5      0
                             ___wmul
                     _cont_data_read
                    _cont_data_write
                          _data_read
                         _data_write
 ---------------------------------------------------------------------------------
 (1) _cont_data_write                                      7     5      2    1029
                                              5 COMMON     7     5      2
                         _data_write
                              _delay
 ---------------------------------------------------------------------------------
 (1) _data_write                                           3     2      1     523
                                              2 COMMON     3     2      1
                              _delay
 ---------------------------------------------------------------------------------
 (2) _cont_data_read                                       7     4      3     483
                                              3 COMMON     7     4      3
                          _data_read
                              _delay
 ---------------------------------------------------------------------------------
 (2) _data_read                                            1     1      0      22
                                              2 COMMON     1     1      0
                              _delay
 ---------------------------------------------------------------------------------
 (2) _delay                                                2     2      0       0
                                              0 COMMON     2     2      0
 ---------------------------------------------------------------------------------
 (2) ___wmul                                               6     2      4     548
                                              0 COMMON     6     2      4
 ---------------------------------------------------------------------------------
 Estimated maximum stack depth 3
 ---------------------------------------------------------------------------------

 Call Graph Graphs:

 _main (ROOT)
   ___awdiv
   ___awmod
   ___wmul
   _alarm_init
     ___wmul
     _cont_data_read
       _data_read
         _delay
       _delay
     _cont_data_write
       _data_write
         _delay
       _delay
     _data_read
       _delay
     _data_write
       _delay
   _buzz
     _disp
       ___awdiv
       ___awmod
       _disp_dig
         ___awdiv (ARG)
         ___awmod (ARG)
         _disp_cc (ARG)
     _real_time_counter
   _cont_data_write
     _data_write
       _delay
     _delay
   _data_clear
     _data_write
       _delay
     _delay
   _data_init
   _data_write
     _delay
   _disp
     ___awdiv
     ___awmod
     _disp_dig
       ___awdiv (ARG)
       ___awmod (ARG)
       _disp_cc (ARG)
   _disp_alarm
     _disp_alarm_no
       _disp_dig
         ___awdiv (ARG)
         ___awmod (ARG)
         _disp_cc (ARG)
       _real_time_counter
     _disp_alarm_state
       _disp_dig
         ___awdiv (ARG)
         ___awmod (ARG)
         _disp_cc (ARG)
       _real_time_counter
   _disp_alarm_state
     _disp_dig
       ___awdiv (ARG)
       ___awmod (ARG)
       _disp_cc (ARG)
     _real_time_counter
   _real_time_counter
   _set_time
     _buzz
       _disp
         ___awdiv
         ___awmod
         _disp_dig
           ___awdiv (ARG)
           ___awmod (ARG)
           _disp_cc (ARG)
       _real_time_counter
     _disp
       ___awdiv
       ___awmod
       _disp_dig
         ___awdiv (ARG)
         ___awmod (ARG)
         _disp_cc (ARG)
     _disp_dig
       ___awdiv (ARG)
       ___awmod (ARG)
       _disp_cc (ARG)
     _real_time_counter

 Address spaces:
Name               Size   Autos  Total    Cost      Usage
BANK3               60      0       0       9        0.0%
BITBANK3            60      0       0       8        0.0%
SFR3                 0      0       0       4        0.0%
BITSFR3              0      0       0       4        0.0%
BANK2               60      0       0      11        0.0%
BITBANK2            60      0       0      10        0.0%
SFR2                 0      0       0       5        0.0%
BITSFR2              0      0       0       5        0.0%
BANK1               50      0       0       7        0.0%
BITBANK1            50      0       0       6        0.0%
SFR1                 0      0       0       2        0.0%
BITSFR1              0      0       0       2        0.0%
BANK0               50     27      45       5       86.3%
BITBANK0            50      0       0       4        0.0%
SFR0                 0      0       0       1        0.0%
BITSFR0              0      0       0       1        0.0%
COMMON               E      E       E       1      100.0%
BITCOMMON            E      0       0       0        0.0%
CODE                 0      0       0       0        0.0%
DATA                 0      0      53      12        0.0%
ABS                  0      0      53       3        0.0%
NULL                 0      0       0       0        0.0%
STACK                0      0       0       2        0.0%
EEDATA             100      0       0       0        0.0%


Microchip Technology PIC Macro Assembler V2.10 build 88905656 
Symbol Table                                                                                   Thu May 14 19:34:08 2020

           _cont_data_write 0C0D                 disp_cc@PORT 0073                 __CFG_CP$OFF 0000  
                        l79 025B                ___awdiv@sign 0076                          _hr 005C  
                        fsr 0004         ___wmul@multiplicand 0072                         l111 0B33  
                       l120 0CCA                         l200 0B87                         l105 0B1F  
                       l114 0B3F                         l123 0CF4                         l132 0BD9  
                       l108 0B0D                         l300 01C2                         l141 0C42  
                       l126 0D00                 disp_dig@dig 0079                         l303 01C3  
                       l223 0E7F                         l400 07DD                         l217 0D7C  
                       l401 07B2                         l306 0B2A                         l243 0F58  
                       l235 0F5C                         l148 0C0C                         l180 013F  
                       l228 0E7B                         l262 0FAF                         l406 06C4  
                       l191 0C7D                         l327 0411                         l264 0FFF  
                       l513 0B94                         l177 0B63                         l337 0447  
                       l362 0511                         l515 0BAC                         l195 0C7D  
                       l347 0478                         l293 0CBB                         l357 04AE  
                       l294 0CBC                         l199 0B85                         l367 052C  
                       l289 02F9                         l394 069F                         l387 0678  
                       l379 05DE                         l666 00C5                         l679 005E  
                       _GIE 005F                         _RC0 0038                         _RC1 0039  
                       _RC2 003A                         _RC3 003B                         _RC4 003C  
                       _RC5 003D                __CFG_CPD$OFF 0000                disp_cc@digit 0072  
                       _min 005B                         _sec 005A                         fsr0 0004  
                       _snz 0047                         indf 0000                ___awmod@sign 0076  
              __CFG_FOSC$HS 0000                __CFG_LVP$OFF 0000                        l2101 0211  
                      l2103 0216                        l2111 025A                        l2105 021B  
                      l2121 0B41                        l2201 0050                        l3001 0701  
                      l2211 0B30                        l2123 0B51                        l2131 0064  
                      l2203 0055                        l3011 0719                        l3003 0706  
                      l2213 0B37                        l2221 0CC4                        l2301 0C33  
                      l2109 021D                        l2125 0B5A                        l2141 0078  
                      l2133 0069                        l2205 005A                        l3021 0747  
                      l3013 0725                        l3005 070A                        l2119 0B16  
                      l2215 0B3C                        l2231 0CDE                        l2223 0CD0  
                      l2303 0C38                        l2071 01C6                        l2151 008E  
                      l2143 007A                        l2135 006B                        l2127 005F  
                      l3031 0790                        l3023 0754                        l3015 072A  
                      l3007 070F                        l2209 0B2C                        l2241 0CEA  
                      l2233 0CE1                        l2225 0CD5                        l2305 0C3C  
                      l2081 01DF                        l2073 01CB                        l2161 00B1  
                      l2153 0092                        l2145 0080                        l2137 006F  
                      l2129 0060                        l2321 0B7F                        l2401 0D04  
                      l3033 0795                        l3025 0759                        l3017 0732  
                      l3009 0715                        l2243 0CEB                        l2235 0CE5  
                      l2227 0CD8                        l2219 0CBE                        l2091 01F8  
                      l2083 01E4                        l2075 01D0                        l2251 0C43  
                      l2331 0C82                        l2323 0C7E                        l2155 00A3  
                      l2147 0083                        l2163 00B7                        l2139 0074  
                      l2171 0006                        l2315 0B6A                        l2307 0B67  
                      l2411 0D3C                        l2403 0D05                        l3051 07D2  
                      l3043 07B7                        l3035 07A7                        l3027 075F  
                      l3019 0738                        l2245 0CF1                        l2237 0CE6  
                      l2229 0CDC                        l2093 01FD                        l2085 01E9  
                      l2077 01D5                        l2069 01C5                        l2261 0C5B  
                      l2253 0C4E                        l2333 0CAA                        l2325 0C81  
                      l2341 0143                        l2165 00BC                        l2157 00A9  
                      l2149 008A                        l2181 0016                        l2173 0007  
                      l2317 0B74                        l2309 0B69                        l2501 0E5B  
                      l2421 0D4F                        l2413 0D42                        l2405 0D07  
                      l3045 07C1                        l3029 0763                        l3037 07AC  
                      l2247 0CFA                        l2239 0CE8                        l2095 0202  
                      l2087 01EE                        l2079 01DA                        l2271 0C70  
                      l2263 0C5F                        l2255 0C50                        l2335 0CAF  
                      l2351 0179                        l2343 0152                        l2167 00C1  
                      l2159 00AA                        l2191 002F                        l2183 001B  
                      l2175 000B                        l2319 0B79                        l2511 0E8E  
                      l2503 0E6A                        l2431 0D6E                        l2423 0D59  
                      l2415 0D48                        l2407 0D09                        l3047 07C6  
                      l2281 0BB0                        l3073 0225                        l2097 0207  
                      l2089 01F3                        l2273 0C71                        l2265 0C65  
                      l2257 0C54                        l2337 0CB5                        l2353 017E  
                      l2193 0033                        l2185 0021                        l2177 0010  
                      l2249 00C9                        l2601 0FC5                        l2521 0EB4  
                      l2513 0E96                        l2505 0E6F                        l2441 0DA0  
                      l2425 0D5E                        l2417 0D4C                        l2409 0D37  
                      l2433 0D72                        l3049 07CC                        l2371 0B88  
                      l2283 0BC0                        l2291 0C0E                        l2099 020C  
                      l2275 0C75                        l2267 0C66                        l2259 0C5A  
                      l2363 018C                        l2355 0184                        l2339 0140  
                      l2195 003D                        l2187 0024                        l2179 0012  
                      l2603 0FF3                        l2531 0ECF                        l2523 0EBE  
                      l2515 0E9B                        l2507 0E75                        l2451 0DC5  
                      l2443 0DA5                        l2435 0D78                        l2419 0D4E  
                      l2427 0D64                        l2381 0BA8                        l2373 0B8A  
                      l2285 0BC5                        l2293 0C10                        l2621 0266  
                      l2277 0C7B                        l2269 0C6A                        l2365 01B1  
                      l2349 0153                        l2357 018B                        l2197 0043  
                      l2189 002B                        l2605 0FF8                        l2541 0EEF  
                      l2533 0EDE                        l2517 0EA5                        l2525 0EC7  
                      l2509 0E83                        l2461 0DEA                        l2453 0DCF  
                      l2445 0DAB                        l2437 0D81                        l2429 0D6A  
                      l2375 0B8E                        l2287 0BC9                        l2279 0BAE  
                      l2295 0C14                        l2631 029F                        l2623 027A  
                      l2615 025C                        l2391 0BE4                        l2367 01B6  
                      l2199 004A                        l2607 0FFE                        l2551 0F1D  
                      l2543 0EFC                        l2535 0EE3                        l2527 0EC8  
                      l2519 0EAF                        l2471 0DFC                        l2463 0DF5  
                      l2455 0DD4                        l2447 0DBA                        l2439 0D91  
                      l2711 0302                        l2377 0B9B                        l2289 0BCF  
                      l2297 0C20                        l2641 02D5                        l2633 02C4  
                      l2625 0281                        l2617 025F                        l2393 0BEE  
                      l2385 0B06                        l2369 01BC                        l2553 0F22  
                      l2545 0F04                        l2481 0E22                        l2473 0E0B  
                      l2465 0DFB                        l2457 0DDF                        l2449 0DBF  
                      l2801 0460                        l2721 032C                        l2713 030B  
                      l2379 0BA2                        l2299 0C22                        l2643 02DA  
                      l2627 0283                        l2395 0BF3                        l2387 0BDB  
                      l2563 0F3D                        l2555 0F2C                        l2547 0F09  
                      l2539 0EEA                        l2491 0E49                        l2483 0E2E  
                      l2475 0E10                        l2459 0DE5                        l2811 047C  
                      l2803 0466                        l2731 0343                        l2723 0331  
                      l2715 030D                        l2707 02FA                        l2645 02DB  
                      l2629 0293                        l2637 02C9                        l2397 0C02  
                      l2389 0BE0                        l2661 0B20                        l2573 0F61  
                      l2581 0F85                        l2565 0F4C                        l2549 0F13  
                      l2557 0F35                        l2493 0E54                        l2485 0E33  
                      l2477 0E16                        l2901 05C0                        l2821 0496  
                      l2813 0480                        l2805 046C                        l2741 0370  
                      l2733 0348                        l2725 0334                        l2717 0312  
                      l2709 0300                        l2655 02E6                        l2647 02E2  
                      l2639 02CA                        l2399 0C06                        l2591 0FA5  
                      l2583 0F89                        l2575 0F70                        l2567 0F51  
                      l2559 0F36                        l2495 0E5A                        l2487 0E3E  
                      l2479 0E1D                        l2903 05C4                        l2831 04B2  
                      l2823 049C                        l2815 0485                        l2807 0470  
                      l2751 03BF                        l2743 0375                        l2735 0368  
                      l2727 0336                        l2719 0320                        l2657 02EF  
                      l2649 02E5                        l2593 0FAB                        l2585 0F8B  
                      l2577 0F75                        l2489 0E44                        l2921 05F8  
                      l2905 05D0                        l2841 04CF                        l2833 04B6  
                      l2825 04A2                        l2817 0487                        l2809 0474  
                      l2761 03EF                        l2753 03E5                        l2745 0386  
                      l2737 0369                        l2729 0337                        l2659 02F3  
                      l2587 0F9A                        l2579 0F7B                        l2595 0FB3  
                      l2931 063E                        l2923 05FD                        l2915 05E3  
                      l2907 05D3                        l2851 04EE                        l2843 04DA  
                      l2835 04BB                        l2827 04A6                        l2819 0491  
                      l2771 040D                        l2763 03F9                        l2755 03E6  
                      l2747 039B                        l2589 0F9F                        l2941 0660  
                      l2933 0643                        l2925 0603                        l2917 05ED  
                      l2909 05DB                        l2861 0516                        l2853 04F4  
                      l2829 04AA                        l2781 042A                        l2773 0415  
                      l2765 03FF                        l2749 03AA                        l2599 0FB5  
                      l2943 0665                        l2935 064F                        l2927 0608  
                      l2919 05F2                        l2871 053B                        l2863 0520  
                      l2855 04FF                        l2847 04DF                        l2791 0443  
                      l2783 042F                        l2775 0419                        l2767 0405  
                      l2839 04C0                        l2759 03ED                        l2961 0687  
                      l2945 066B                        l2929 0624                        l2873 0540  
                      l2865 0525                        l2857 0504                        l2849 04E9  
                      l2793 044B                        l2785 0435                        l2777 041E  
                      l2769 0409                        l2963 068C                        l2947 0671  
                      l2939 0656                        l2875 0546                        l2795 044F  
                      l2787 043B                        l2779 0420                        l2891 05A6  
                      l2981 06AF                        l2965 0692                        l2949 0676  
                      l2893 05AB                        l2885 0595                        l2877 0555  
                      l2869 0531                        l2797 0454                        l2789 043F  
                      l2991 06D7                        l2983 06B4                        l2967 0697  
                      l2959 067D                        l2895 05B1                        l2879 0569  
                      l2799 0456                        l2887 05A1                        l2993 06E2  
                      l2985 06BA                        l2977 06A3                        l2969 069A  
                      l2897 05B5                        l2995 06EC                        l2987 06C0  
                      l2979 06A5                        l2899 05BA                        l2997 06F9  
                      l2989 06C8                        l2999 06FE                        _EEIF 006C  
                      u2000 0CCA                        u2001 0CC9                        u2010 0CD0  
                      u2011 0CCF                        u2020 0CF0                        u2100 0C7B  
                      u2021 0CEE                        u2101 0C7A                        u2110 0BCF  
                      u2111 0BCE                        u2200 0B8E                        u2040 0CFA  
                      u2120 0C20                        u3000 044F                        u2201 0B8D  
                      u2041 0CF9                        u2121 0C1F                        u3001 044E  
                      u2050 0D00                        u2034 0CF1                        u2130 0C42  
                      u3010 0453                        u2051 0CFF                        u2131 0C41  
                      u3011 0452                        u2060 0C4E                        u2140 0B85  
                      u2300 0D78                        u3100 04A6                        u3020 046C  
                      u2061 0C4D                        u2141 0B84                        u2301 0D77  
                      u3101 04A5                        u3021 046B                        u2230 0BA8  
                      u2070 0C5A                        u2150 0CBB                        u2310 0D7C  
                      u3110 04AA                        u3030 0470                        u2231 0BA7  
                      u2215 0B95                        u2071 0C59                        u2151 0CBA  
                      u2311 0D7B                        u3111 04A9                        u3031 046F  
                      u2240 0BE0                        u2080 0C65                        u2400 0E33  
                      u2320 0D81                        u3200 04F4                        u3120 04AE  
                      u3040 0474                        u2225 0B9C                        u2241 0BDF  
                      u2081 0C64                        u2401 0E32                        u2321 0D80  
                      u3201 04F3                        u3121 04AD                        u3041 0473  
                      u2250 0C0C                        u2090 0C70                        u2170 0152  
                      u2410 0E3E                        u2330 0DAB                        u3130 04B2  
                      u3050 0478                        u2251 0C0B                        u2091 0C6F  
                      u2171 0151                        u2411 0E3D                        u2331 0DAA  
                      u3131 04B1                        u3051 0477                        u2180 018A  
                      u2164 0149                        u2500 0EB4                        u2420 0E49  
                      u2340 0DC5                        u2260 0D48                        u3300 05E2  
                      u3220 0515                        u3140 04B6                        u3060 047C  
                      u2181 0189                        u2165 0147                        u2501 0EB3  
                      u2421 0E48                        u2341 0DC4                        u2261 0D47  
                      u3301 05E1                        u3221 0514                        u3141 04B5  
                      u3061 047B                        u2190 01C2                        u2510 0EBE  
                      u2430 0E54                        u2350 0DD4                        u2270 0D4C  
                      u3310 05F8                        u3230 052B                        u3214 04FA  
                      u3150 04BA                        u3070 0480                        u2191 01C1  
                      u2511 0EBD                        u2431 0E53                        u2351 0DD3  
                      u2271 0D4B                        u3311 05F7                        u3231 052A  
                      u3215 04F8                        u3151 04B9                        u3071 047F  
                      u1800 006F                        u2600 0F60                        u2520 0ECE  
                      u2440 0E7B                        u2360 0DDF                        u2280 0D6A  
                      u3400 06C4                        u3320 0655                        u3240 0530  
                      u3080 0484                        u1801 006E                        u2601 0F5F  
                      u2521 0ECD                        u2441 0E7A                        u2361 0DDE  
                      u2281 0D69                        u3401 06C3                        u3321 0654  
                      u3241 052F                        u3081 0483                        u1810 0080  
                      u2610 0F7B                        u2530 0EFC                        u2450 0E7F  
                      u2370 0DEA                        u2290 0D6E                        u3410 06C8  
                      u3330 066B                        u3250 0546                        u3170 04CF  
                      u3090 04A2                        u1811 007F                        u2611 0F7A  
                      u2531 0EFB                        u2451 0E7E                        u2371 0DE9  
                      u2291 0D6D                        u3411 06C7                        u3331 066A  
                      u3251 0545                        u3171 04CE                        u3091 04A1  
                      u2700 0281                        u1900 0016                        u2620 0F81  
                      u2540 0F09                        u2460 0E83                        u2380 0DF5  
                      u3500 0747                        u3340 0671                        u3164 04C6  
                      u2701 0280                        u1901 0015                        u2621 0F7F  
                      u2541 0F08                        u2461 0E82                        u2381 0DF4  
                      u3501 0746                        u3341 0670                        u3165 04C4  
                      u2710 02DA                        u1830 0092                        u1910 0021  
                      u2630 0F82                        u2550 0F13                        u2470 0E8E  
                      u2390 0E1C                        u3430 06D7                        u3350 067C  
                      u3270 0594                        u3190 04DE                        u2711 02D9  
                      u1831 0091                        u1911 0020                        u2551 0F12  
                      u2471 0E8D                        u2391 0E1B                        u3431 06D6  
                      u3351 067B                        u3271 0593                        u3191 04DD  
                      u2720 02F9                        u2640 0F89                        u2560 0F22  
                      u2480 0E9B                        u3520 07B6                        u3424 06CE  
                      u3360 0692                        u3280 05B5                        u3264 054E  
                      u3184 04D5                        u2800 036F                        u2721 02F8  
                      u1825 0084                        u2641 0F88                        u2561 0F21  
                      u2481 0E9A                        u3521 07B5                        u3425 06CC  
                      u3361 0691                        u3281 05B4                        u3265 054C  
                      u3185 04D3                        u2801 036E                        u1850 00A3  
                      u1930 0033                        u2650 0FAB                        u2570 0F2C  
                      u2490 0EA5                        u3530 07CC                        u3514 074D  
                      u3370 0697                        u3290 05D0                        u1851 00A2  
                      u1931 0032                        u2651 0FAA                        u2571 0F2B  
                      u2491 0EA4                        u3531 07CB                        u3515 074B  
                      u3371 0696                        u3291 05CF                        u3275 0590  
                      u1940 003D                        u2660 0FAF                        u2580 0F3C  
                      u3540 07D2                        u3460 0725                        u3444 06DD  
                      u3380 06A3                        u2900 040D                        u2820 0386  
                      u1845 0093                        u1941 003C                        u1925 0025  
                      u2661 0FAE                        u2581 0F3B                        u3541 07D1  
                      u3461 0724                        u3445 06DB                        u3381 06A2  
                      u2901 040C                        u2821 0385                        u1870 00B7  
                      u1790 0064                        u2670 0FB3                        u2590 0F5C  
                      u3470 0732                        u3454 06F2                        u3390 06C0  
                      u2910 0411                        u2830 039B                        u2814 037D  
                      u1871 00B6                        u1855 009F                        u1791 0063  
                      u2671 0FB2                        u2591 0F5B                        u3471 0731  
                      u3455 06F0                        u3391 06BF                        u2911 0410  
                      u2831 039A                        u2815 037B                        u1784 0B49  
                      u1880 00BC                        u1960 0050                        u2680 0FFE  
                      u3480 0738                        u2920 0415                        u1785 0B47  
                      u1881 00BB                        u1865 00AB                        u1961 004F  
                      u1945 0039                        u2681 0FFD                        u3481 0737  
                      u2921 0414                        u2690 0265                        u1970 0055  
                      u1890 000B                        u2930 0419                        u2850 03AA  
                      u2691 0264                        u1971 0054                        u1955 0044  
                      u1891 000A                        u2931 0418                        u2851 03A9  
                      u2835 0397                        u1980 0B37                        u2940 041D  
                      u2860 03BF                        u2844 03A1                        u1981 0B36  
                      u2941 041C                        u2861 03BE                        u2845 039F  
                      u3557 031A                        u1990 0CC4                        u3494 073E  
                      u2950 043B                        u2870 03EC                        u1991 0CC3  
                      u3567 0D55                        u3495 073C                        u2951 043A  
                      u2871 03EB                        u2960 043F                        u2880 0405  
                      u3577 0B5E                        u2961 043E                        u2881 0404  
                      u2865 03BB                        u2970 0443                        u2890 0409  
                      u3587 0B1A                        u2971 0442                        u2891 0408  
                      u2980 0447                        u2981 0446                        u2990 044B  
                      u2991 044A                        _TMR1 000E                __CFG_WRT$OFF 0000  
                      _disp 00C6                        _main 02FA  __size_of_real_time_counter 003B  
                      _buzz 0B64                        _time 0060                        btemp 007E  
    __end_of_cont_data_read 0BDA                        start 0000             cont_data_read@i 0079  
                     ?_disp 007D                       ?_main 0070                       ?_buzz 0024  
           __end_of___awdiv 00C6                       _EEADR 010D               __CFG_WDTE$OFF 0000  
           __end_of___awmod 005F             ___awdiv@divisor 0070                       _T1CON 0010  
           ___awdiv@counter 0075                       _PORTA 0005                       _PORTB 0006  
                     _PORTC 0007                       _PORTD 0008                       _PORTE 0009  
                     _TRISA 0085                       _TRISB 0086                       _TRISC 0087  
                     _TRISD 0088                       _TRISE 0089             __end_of_disp_cc 025C  
                     _alarm 0062                       _delay 0B16             ??_disp_alarm_no 007D  
                     main@i 0044                       main@j 003F                main@time_sum 0045  
                     buzz@j 0027              __CFG_BOREN$OFF 0000                       status 0003  
                     wtemp0 007E     __end_of_cont_data_write 0C43             ?_cont_data_read 0073  
 __size_of_disp_alarm_state 0084             __initialization 07E1                __end_of_disp 0140  
              __end_of_main 07E1                __end_of_buzz 0B88      cont_data_read@end_char 0075  
                    ??_disp 0020                      ??_main 0034                      ??_buzz 0025  
                    ?_delay 0070                      _EEDATA 010C                      _EECON2 018D  
          ___awdiv@dividend 0072            cont_data_write@i 007B                      _TMR1ON 0080  
            __CFG_PWRTE$OFF 0000            __end_of_disp_dig 0B64              disp_alarm_no@i 0020  
                    ___wmul 0B88                   ??___awdiv 0074                   ??___awmod 0074  
                    _alarms 004F               main@pre_al_no 003D            ___awdiv@quotient 0077  
           ___awmod@divisor 0070                      disp@_1 0023                      disp@_2 007D  
           ___awmod@counter 0075                   ??_disp_cc 0070                      buzz@t1 0026  
                    buzz@t2 0024            __end_of_set_time 1000     __end_of__initialization 07FC  
          ?_cont_data_write 0075              __pcstackCOMMON 0070                __pidataBANK0 0003  
       cont_data_read@start 0073               __end_of_delay 0B20          __size_of_data_init 0008  
        __size_of_data_read 0015                     ??_delay 0070                  __pbssBANK0 0047  
                _data_clear 0BDA           cont_data_read@len 0074                  _alarm_init 025C  
                _data_write 0CBD            _disp_alarm_state 0140                  __pmaintext 02FA  
                   ?___wmul 0070               data_clear@end 0075                  _disp_alarm 0B20  
           data_clear@start 0077       disp_alarm_state@i_222 0021                   ?_disp_dig 0079  
          ??_cont_data_read 0076               data_read@addr 0072           __end_of_data_init 0B0E  
         __end_of_data_read 0B40                   ?_set_time 0028                     ___awdiv 005F  
                   ___awmod 0006             __size_of___wmul 0025          data_write@prev_gie 0074  
                   _alarm_h 005F                     _alarm_m 005E                     __ptext1 0D01  
                   __ptext2 0B64                     __ptext3 00C6                     __ptext4 0006  
                   __ptext5 005F                     __ptext6 0B20                     __ptext7 0140  
                   __ptext8 0C7E                     __ptext9 0C43                     _disp_cc 01C4  
          ___awmod@dividend 0072                     clrloop0 0B0F                  ??_disp_dig 007A  
      end_of_initialization 07FC       __end_of_disp_alarm_no 0CBD                 set_time@arr 0033  
               ?_data_clear 0075                 ?_alarm_init 0070                 ?_data_write 0072  
                ??_set_time 0029                 ?_disp_alarm 0070     cont_data_write@end_char 0076  
            __end_of___wmul 0BAD         __size_of_data_clear 0033         __size_of_alarm_init 009E  
       __size_of_data_write 0044         start_initialization 07E1    __end_of_disp_alarm_state 01C4  
       __size_of_disp_alarm 000B                    ??___wmul 0074    __size_of_cont_data_write 0036  
               __pdataBANK0 0062                   ___latbits 0002               __pcstackBANK0 0020  
        cont_data_read@data 0078           disp_alarm_state@i 0020           __size_of_disp_dig 0024  
                 _data_init 0B06                   _data_read 0B2B                    ?___awdiv 0070  
                  ?___awmod 0070           __size_of_set_time 02FF              data_clear@addr 0078  
                  ?_disp_cc 0070          cont_data_write@arr 0075          cont_data_write@len 007A  
            __size_of_delay 000A            main@pre_al_state 003E                   _sec_count 0057  
              ??_data_clear 0076              ___wmul@product 0074                ??_alarm_init 0020  
              ??_data_write 0073                   clear_ram0 0B0E                  ?_data_init 0070  
                ?_data_read 0070                    _PIR2bits 000D                   main@j_240 0042  
                 main@j_243 0043                   main@j_238 0040                   main@j_239 0041  
         ___wmul@multiplier 0070                   disp_dig@n 007C          __end_of_data_clear 0C0D  
         ??_cont_data_write 0077                   _snz_state 0058                ??_disp_alarm 007E  
        __end_of_alarm_init 02FA          __end_of_data_write 0D01                  _EECON1bits 018C  
             set_time@j_210 0032               set_time@j_211 002E               set_time@j_207 002F  
             set_time@j_208 0030               set_time@j_209 0031               set_time@k_205 002D  
   __size_of_cont_data_read 002D          __end_of_disp_alarm 0B2B            __size_of___awdiv 0067  
          __size_of___awmod 0059      __size_of_disp_alarm_no 003F        cont_data_write@start 0079  
          __size_of_disp_cc 0098                    _alarm_no 005D                    _al_state 0059  
         ?_disp_alarm_state 0070                    __ptext10 0B40                    __ptext11 01C4  
                  __ptext20 0B88                    __ptext12 0B06                    __ptext13 0BDA  
                  __ptext14 025C                    __ptext15 0C0D                    __ptext16 0CBD  
                  __ptext17 0BAD                    __ptext18 0B2B                    __ptext19 0B16  
                  _disp_dig 0B40          ??_disp_alarm_state 007D               __size_of_disp 007A  
             __size_of_main 04E7               __size_of_buzz 0024                 alarm_init@i 007C  
               ??_data_init 0070                 ??_data_read 0072           _real_time_counter 0C43  
                 set_time@i 0028                   set_time@j 002B                   set_time@k 002C  
                  _set_time 0D01          ?_real_time_counter 0070         ??_real_time_counter 0070  
                _INTCONbits 000B              data_write@addr 0073              data_write@data 0072  
             _disp_alarm_no 0C7E   __end_of_real_time_counter 0C7E              ?_disp_alarm_no 0070  
            _cont_data_read 0BAD  
